(dp0
cnumpy.core.multiarray
scalar
p1
(cnumpy
dtype
p2
(S'S33'
p3
I0
I1
tp4
Rp5
(I3
S'|'
p6
NNNI33
I1
I0
tp7
bS'https:\\/\\/vine.co\\/v\\/iFD19Xn0Oqa'
p8
tp9
Rp10
I1
sg1
(g2
(S'S33'
p11
I0
I1
tp12
Rp13
(I3
S'|'
p14
NNNI33
I1
I0
tp15
bS'https:\\/\\/vine.co\\/v\\/eAZvBD6nMim'
p16
tp17
Rp18
I2
sg1
(g2
(S'S33'
p19
I0
I1
tp20
Rp21
(I3
S'|'
p22
NNNI33
I1
I0
tp23
bS'https:\\/\\/vine.co\\/v\\/i6BZWIKw2Hq'
p24
tp25
Rp26
I3
sg1
(g2
(S'S33'
p27
I0
I1
tp28
Rp29
(I3
S'|'
p30
NNNI33
I1
I0
tp31
bS'https:\\/\\/vine.co\\/v\\/eVHMuHZ3lAr'
p32
tp33
Rp34
I4
sg1
(g2
(S'S33'
p35
I0
I1
tp36
Rp37
(I3
S'|'
p38
NNNI33
I1
I0
tp39
bS'https:\\/\\/vine.co\\/v\\/e936MH2zt5M'
p40
tp41
Rp42
I5
sg1
(g2
(S'S33'
p43
I0
I1
tp44
Rp45
(I3
S'|'
p46
NNNI33
I1
I0
tp47
bS'https:\\/\\/vine.co\\/v\\/iU3qV6xlAPM'
p48
tp49
Rp50
I6
sg1
(g2
(S'S33'
p51
I0
I1
tp52
Rp53
(I3
S'|'
p54
NNNI33
I1
I0
tp55
bS'https:\\/\\/vine.co\\/v\\/Oh7LeAPKPL0'
p56
tp57
Rp58
I759
sg1
(g2
(S'S33'
p59
I0
I1
tp60
Rp61
(I3
S'|'
p62
NNNI33
I1
I0
tp63
bS'https:\\/\\/vine.co\\/v\\/5HJnLWvjpQW'
p64
tp65
Rp66
I8
sg1
(g2
(S'S33'
p67
I0
I1
tp68
Rp69
(I3
S'|'
p70
NNNI33
I1
I0
tp71
bS'https:\\/\\/vine.co\\/v\\/M6MDA79ZupW'
p72
tp73
Rp74
I10
sg1
(g2
(S'S33'
p75
I0
I1
tp76
Rp77
(I3
S'|'
p78
NNNI33
I1
I0
tp79
bS'https:\\/\\/vine.co\\/v\\/MU1BQD3QHIg'
p80
tp81
Rp82
I11
sg1
(g2
(S'S33'
p83
I0
I1
tp84
Rp85
(I3
S'|'
p86
NNNI33
I1
I0
tp87
bS'https:\\/\\/vine.co\\/v\\/57UrKMJiidY'
p88
tp89
Rp90
I12
sg1
(g2
(S'S33'
p91
I0
I1
tp92
Rp93
(I3
S'|'
p94
NNNI33
I1
I0
tp95
bS'https:\\/\\/vine.co\\/v\\/e96eJ31vxdx'
p96
tp97
Rp98
I13
sg1
(g2
(S'S33'
p99
I0
I1
tp100
Rp101
(I3
S'|'
p102
NNNI33
I1
I0
tp103
bS'https:\\/\\/vine.co\\/v\\/OYtJtEVtETV'
p104
tp105
Rp106
I14
sg1
(g2
(S'S33'
p107
I0
I1
tp108
Rp109
(I3
S'|'
p110
NNNI33
I1
I0
tp111
bS'https:\\/\\/vine.co\\/v\\/eLBYVuuEKWT'
p112
tp113
Rp114
I15
sg1
(g2
(S'S33'
p115
I0
I1
tp116
Rp117
(I3
S'|'
p118
NNNI33
I1
I0
tp119
bS'https:\\/\\/vine.co\\/v\\/MluVXU7J216'
p120
tp121
Rp122
I413
sg1
(g2
(S'S33'
p123
I0
I1
tp124
Rp125
(I3
S'|'
p126
NNNI33
I1
I0
tp127
bS'https:\\/\\/vine.co\\/v\\/ieOg1azvA2Y'
p128
tp129
Rp130
I16
sg1
(g2
(S'S33'
p131
I0
I1
tp132
Rp133
(I3
S'|'
p134
NNNI33
I1
I0
tp135
bS'https:\\/\\/vine.co\\/v\\/5vPj2e116UD'
p136
tp137
Rp138
I437
sg1
(g2
(S'S33'
p139
I0
I1
tp140
Rp141
(I3
S'|'
p142
NNNI33
I1
I0
tp143
bS'https:\\/\\/vine.co\\/v\\/eEaBrZiqvEe'
p144
tp145
Rp146
I20
sg1
(g2
(S'S33'
p147
I0
I1
tp148
Rp149
(I3
S'|'
p150
NNNI33
I1
I0
tp151
bS'https:\\/\\/vine.co\\/v\\/Mlriw1VJeDn'
p152
tp153
Rp154
I23
sg1
(g2
(S'S33'
p155
I0
I1
tp156
Rp157
(I3
S'|'
p158
NNNI33
I1
I0
tp159
bS'https:\\/\\/vine.co\\/v\\/OV9jxuaKOWg'
p160
tp161
Rp162
I126
sg1
(g2
(S'S33'
p163
I0
I1
tp164
Rp165
(I3
S'|'
p166
NNNI33
I1
I0
tp167
bS'https:\\/\\/vine.co\\/v\\/i9A2UdMedv6'
p168
tp169
Rp170
I25
sg1
(g2
(S'S33'
p171
I0
I1
tp172
Rp173
(I3
S'|'
p174
NNNI33
I1
I0
tp175
bS'https:\\/\\/vine.co\\/v\\/OeVv1tWOJxa'
p176
tp177
Rp178
I26
sg1
(g2
(S'S33'
p179
I0
I1
tp180
Rp181
(I3
S'|'
p182
NNNI33
I1
I0
tp183
bS'https:\\/\\/vine.co\\/v\\/i27L2d0FxrK'
p184
tp185
Rp186
I27
sg1
(g2
(S'S33'
p187
I0
I1
tp188
Rp189
(I3
S'|'
p190
NNNI33
I1
I0
tp191
bS'https:\\/\\/vine.co\\/v\\/5zAMWAjdh5z'
p192
tp193
Rp194
I949
sg1
(g2
(S'S33'
p195
I0
I1
tp196
Rp197
(I3
S'|'
p198
NNNI33
I1
I0
tp199
bS'https:\\/\\/vine.co\\/v\\/eu7tVbmVeqZ'
p200
tp201
Rp202
I28
sg1
(g2
(S'S33'
p203
I0
I1
tp204
Rp205
(I3
S'|'
p206
NNNI33
I1
I0
tp207
bS'https:\\/\\/vine.co\\/v\\/5dtxDXqrBLP'
p208
tp209
Rp210
I29
sg1
(g2
(S'S33'
p211
I0
I1
tp212
Rp213
(I3
S'|'
p214
NNNI33
I1
I0
tp215
bS'https:\\/\\/vine.co\\/v\\/OZahUJ2YJBl'
p216
tp217
Rp218
I30
sg1
(g2
(S'S33'
p219
I0
I1
tp220
Rp221
(I3
S'|'
p222
NNNI33
I1
I0
tp223
bS'https:\\/\\/vine.co\\/v\\/eT2MIvmUxY2'
p224
tp225
Rp226
I31
sg1
(g2
(S'S33'
p227
I0
I1
tp228
Rp229
(I3
S'|'
p230
NNNI33
I1
I0
tp231
bS'https:\\/\\/vine.co\\/v\\/MUQjpvDKr9B'
p232
tp233
Rp234
I821
sg1
(g2
(S'S33'
p235
I0
I1
tp236
Rp237
(I3
S'|'
p238
NNNI33
I1
I0
tp239
bS'https:\\/\\/vine.co\\/v\\/Ml1dVzguxTZ'
p240
tp241
Rp242
I33
sg1
(g2
(S'S33'
p243
I0
I1
tp244
Rp245
(I3
S'|'
p246
NNNI33
I1
I0
tp247
bS'https:\\/\\/vine.co\\/v\\/etJPQWmu22v'
p248
tp249
Rp250
I34
sg1
(g2
(S'S33'
p251
I0
I1
tp252
Rp253
(I3
S'|'
p254
NNNI33
I1
I0
tp255
bS'https:\\/\\/vine.co\\/v\\/iPAnlZdQEdL'
p256
tp257
Rp258
I35
sg1
(g2
(S'S33'
p259
I0
I1
tp260
Rp261
(I3
S'|'
p262
NNNI33
I1
I0
tp263
bS'https:\\/\\/vine.co\\/v\\/ebXPXMvIFwe'
p264
tp265
Rp266
I36
sg1
(g2
(S'S33'
p267
I0
I1
tp268
Rp269
(I3
S'|'
p270
NNNI33
I1
I0
tp271
bS'https:\\/\\/vine.co\\/v\\/OipUInLAqxv'
p272
tp273
Rp274
I37
sg1
(g2
(S'S33'
p275
I0
I1
tp276
Rp277
(I3
S'|'
p278
NNNI33
I1
I0
tp279
bS'https:\\/\\/vine.co\\/v\\/hIKUPVQ36tA'
p280
tp281
Rp282
I38
sg1
(g2
(S'S33'
p283
I0
I1
tp284
Rp285
(I3
S'|'
p286
NNNI33
I1
I0
tp287
bS'https:\\/\\/vine.co\\/v\\/huu0lZbXHEw'
p288
tp289
Rp290
I39
sg1
(g2
(S'S33'
p291
I0
I1
tp292
Rp293
(I3
S'|'
p294
NNNI33
I1
I0
tp295
bS'https:\\/\\/vine.co\\/v\\/izzptFX3uOn'
p296
tp297
Rp298
I41
sg1
(g2
(S'S33'
p299
I0
I1
tp300
Rp301
(I3
S'|'
p302
NNNI33
I1
I0
tp303
bS'https:\\/\\/vine.co\\/v\\/eB6nhuvex2m'
p304
tp305
Rp306
I42
sg1
(g2
(S'S33'
p307
I0
I1
tp308
Rp309
(I3
S'|'
p310
NNNI33
I1
I0
tp311
bS'https:\\/\\/vine.co\\/v\\/5XA1muObVXU'
p312
tp313
Rp314
I43
sg1
(g2
(S'S33'
p315
I0
I1
tp316
Rp317
(I3
S'|'
p318
NNNI33
I1
I0
tp319
bS'https:\\/\\/vine.co\\/v\\/eDz3u1DL2P7'
p320
tp321
Rp322
I44
sg1
(g2
(S'S33'
p323
I0
I1
tp324
Rp325
(I3
S'|'
p326
NNNI33
I1
I0
tp327
bS'https:\\/\\/vine.co\\/v\\/idFF2uAUhU2'
p328
tp329
Rp330
I45
sg1
(g2
(S'S33'
p331
I0
I1
tp332
Rp333
(I3
S'|'
p334
NNNI33
I1
I0
tp335
bS'https:\\/\\/vine.co\\/v\\/iK9wqOri5pr'
p336
tp337
Rp338
I46
sg1
(g2
(S'S33'
p339
I0
I1
tp340
Rp341
(I3
S'|'
p342
NNNI33
I1
I0
tp343
bS'https:\\/\\/vine.co\\/v\\/Ox5znjXDWjV'
p344
tp345
Rp346
I47
sg1
(g2
(S'S33'
p347
I0
I1
tp348
Rp349
(I3
S'|'
p350
NNNI33
I1
I0
tp351
bS'https:\\/\\/vine.co\\/v\\/OUvaqAPEltt'
p352
tp353
Rp354
I48
sg1
(g2
(S'S33'
p355
I0
I1
tp356
Rp357
(I3
S'|'
p358
NNNI33
I1
I0
tp359
bS'https:\\/\\/vine.co\\/v\\/O0uZ9wFDiz0'
p360
tp361
Rp362
I49
sg1
(g2
(S'S33'
p363
I0
I1
tp364
Rp365
(I3
S'|'
p366
NNNI33
I1
I0
tp367
bS'https:\\/\\/vine.co\\/v\\/5uLbnYi1QYh'
p368
tp369
Rp370
I1127
sg1
(g2
(S'S33'
p371
I0
I1
tp372
Rp373
(I3
S'|'
p374
NNNI33
I1
I0
tp375
bS'https:\\/\\/vine.co\\/v\\/i96hYElnHbz'
p376
tp377
Rp378
I50
sg1
(g2
(S'S33'
p379
I0
I1
tp380
Rp381
(I3
S'|'
p382
NNNI33
I1
I0
tp383
bS'https:\\/\\/vine.co\\/v\\/5wzxKiQLqmp'
p384
tp385
Rp386
I51
sg1
(g2
(S'S33'
p387
I0
I1
tp388
Rp389
(I3
S'|'
p390
NNNI33
I1
I0
tp391
bS'https:\\/\\/vine.co\\/v\\/O5tdE27Fthw'
p392
tp393
Rp394
I53
sg1
(g2
(S'S33'
p395
I0
I1
tp396
Rp397
(I3
S'|'
p398
NNNI33
I1
I0
tp399
bS'https:\\/\\/vine.co\\/v\\/izuI0TOWZJA'
p400
tp401
Rp402
I54
sg1
(g2
(S'S33'
p403
I0
I1
tp404
Rp405
(I3
S'|'
p406
NNNI33
I1
I0
tp407
bS'https:\\/\\/vine.co\\/v\\/iVqJ5bMBn3M'
p408
tp409
Rp410
I55
sg1
(g2
(S'S33'
p411
I0
I1
tp412
Rp413
(I3
S'|'
p414
NNNI33
I1
I0
tp415
bS'https:\\/\\/vine.co\\/v\\/5HaZ9LebaE9'
p416
tp417
Rp418
I56
sg1
(g2
(S'S33'
p419
I0
I1
tp420
Rp421
(I3
S'|'
p422
NNNI33
I1
I0
tp423
bS'https:\\/\\/vine.co\\/v\\/hJQ6WuDmx1u'
p424
tp425
Rp426
I57
sg1
(g2
(S'S33'
p427
I0
I1
tp428
Rp429
(I3
S'|'
p430
NNNI33
I1
I0
tp431
bS'https:\\/\\/vine.co\\/v\\/ipn9hFdjIUZ'
p432
tp433
Rp434
I58
sg1
(g2
(S'S33'
p435
I0
I1
tp436
Rp437
(I3
S'|'
p438
NNNI33
I1
I0
tp439
bS'https:\\/\\/vine.co\\/v\\/5ghHLBMMdlV'
p440
tp441
Rp442
I59
sg1
(g2
(S'S33'
p443
I0
I1
tp444
Rp445
(I3
S'|'
p446
NNNI33
I1
I0
tp447
bS'https:\\/\\/vine.co\\/v\\/MzKDtpQ1A93'
p448
tp449
Rp450
I955
sg1
(g2
(S'S33'
p451
I0
I1
tp452
Rp453
(I3
S'|'
p454
NNNI33
I1
I0
tp455
bS'https:\\/\\/vine.co\\/v\\/i1jQFxVOPhF'
p456
tp457
Rp458
I60
sg1
(g2
(S'S33'
p459
I0
I1
tp460
Rp461
(I3
S'|'
p462
NNNI33
I1
I0
tp463
bS'https:\\/\\/vine.co\\/v\\/iI7gQnjH2JP'
p464
tp465
Rp466
I1099
sg1
(g2
(S'S33'
p467
I0
I1
tp468
Rp469
(I3
S'|'
p470
NNNI33
I1
I0
tp471
bS'https:\\/\\/vine.co\\/v\\/ObbKrpn5JwL'
p472
tp473
Rp474
I337
sg1
(g2
(S'S33'
p475
I0
I1
tp476
Rp477
(I3
S'|'
p478
NNNI33
I1
I0
tp479
bS'https:\\/\\/vine.co\\/v\\/OIQ7tEaMT5K'
p480
tp481
Rp482
I624
sg1
(g2
(S'S33'
p483
I0
I1
tp484
Rp485
(I3
S'|'
p486
NNNI33
I1
I0
tp487
bS'https:\\/\\/vine.co\\/v\\/hbZj2TlPKYu'
p488
tp489
Rp490
I64
sg1
(g2
(S'S33'
p491
I0
I1
tp492
Rp493
(I3
S'|'
p494
NNNI33
I1
I0
tp495
bS'https:\\/\\/vine.co\\/v\\/eDLlWFeizJE'
p496
tp497
Rp498
I65
sg1
(g2
(S'S33'
p499
I0
I1
tp500
Rp501
(I3
S'|'
p502
NNNI33
I1
I0
tp503
bS'https:\\/\\/vine.co\\/v\\/ePbWbaQqrgl'
p504
tp505
Rp506
I67
sg1
(g2
(S'S33'
p507
I0
I1
tp508
Rp509
(I3
S'|'
p510
NNNI33
I1
I0
tp511
bS'https:\\/\\/vine.co\\/v\\/5dXjmVaHnxT'
p512
tp513
Rp514
I68
sg1
(g2
(S'S33'
p515
I0
I1
tp516
Rp517
(I3
S'|'
p518
NNNI33
I1
I0
tp519
bS'https:\\/\\/vine.co\\/v\\/eDZ3H111Feq'
p520
tp521
Rp522
I70
sg1
(g2
(S'S33'
p523
I0
I1
tp524
Rp525
(I3
S'|'
p526
NNNI33
I1
I0
tp527
bS'https:\\/\\/vine.co\\/v\\/OEm65j3O55V'
p528
tp529
Rp530
I71
sg1
(g2
(S'S33'
p531
I0
I1
tp532
Rp533
(I3
S'|'
p534
NNNI33
I1
I0
tp535
bS'https:\\/\\/vine.co\\/v\\/OIrM9pKMqmu'
p536
tp537
Rp538
I72
sg1
(g2
(S'S33'
p539
I0
I1
tp540
Rp541
(I3
S'|'
p542
NNNI33
I1
I0
tp543
bS'https:\\/\\/vine.co\\/v\\/MxI9XYeBU0l'
p544
tp545
Rp546
I73
sg1
(g2
(S'S33'
p547
I0
I1
tp548
Rp549
(I3
S'|'
p550
NNNI33
I1
I0
tp551
bS'https:\\/\\/vine.co\\/v\\/iiTPxlubd3O'
p552
tp553
Rp554
I74
sg1
(g2
(S'S33'
p555
I0
I1
tp556
Rp557
(I3
S'|'
p558
NNNI33
I1
I0
tp559
bS'https:\\/\\/vine.co\\/v\\/hJbdB9zriLX'
p560
tp561
Rp562
I75
sg1
(g2
(S'S33'
p563
I0
I1
tp564
Rp565
(I3
S'|'
p566
NNNI33
I1
I0
tp567
bS'https:\\/\\/vine.co\\/v\\/iriKOPBgPea'
p568
tp569
Rp570
I76
sg1
(g2
(S'S33'
p571
I0
I1
tp572
Rp573
(I3
S'|'
p574
NNNI33
I1
I0
tp575
bS'https:\\/\\/vine.co\\/v\\/ME16mjEaPEY'
p576
tp577
Rp578
I77
sg1
(g2
(S'S33'
p579
I0
I1
tp580
Rp581
(I3
S'|'
p582
NNNI33
I1
I0
tp583
bS'https:\\/\\/vine.co\\/v\\/eiPzmHEEUHm'
p584
tp585
Rp586
I78
sg1
(g2
(S'S33'
p587
I0
I1
tp588
Rp589
(I3
S'|'
p590
NNNI33
I1
I0
tp591
bS'https:\\/\\/vine.co\\/v\\/e3WIT9JaVPp'
p592
tp593
Rp594
I79
sg1
(g2
(S'S33'
p595
I0
I1
tp596
Rp597
(I3
S'|'
p598
NNNI33
I1
I0
tp599
bS'https:\\/\\/vine.co\\/v\\/iwlIqVP0LTu'
p600
tp601
Rp602
I959
sg1
(g2
(S'S33'
p603
I0
I1
tp604
Rp605
(I3
S'|'
p606
NNNI33
I1
I0
tp607
bS'https:\\/\\/vine.co\\/v\\/e71Tapa9AJL'
p608
tp609
Rp610
I81
sg1
(g2
(S'S33'
p611
I0
I1
tp612
Rp613
(I3
S'|'
p614
NNNI33
I1
I0
tp615
bS'https:\\/\\/vine.co\\/v\\/5Z1LJVW51A2'
p616
tp617
Rp618
I82
sg1
(g2
(S'S33'
p619
I0
I1
tp620
Rp621
(I3
S'|'
p622
NNNI33
I1
I0
tp623
bS'https:\\/\\/vine.co\\/v\\/ezQ2h0bBmvW'
p624
tp625
Rp626
I83
sg1
(g2
(S'S33'
p627
I0
I1
tp628
Rp629
(I3
S'|'
p630
NNNI33
I1
I0
tp631
bS'https:\\/\\/vine.co\\/v\\/M2UBYqeqzD6'
p632
tp633
Rp634
I405
sg1
(g2
(S'S33'
p635
I0
I1
tp636
Rp637
(I3
S'|'
p638
NNNI33
I1
I0
tp639
bS'https:\\/\\/vine.co\\/v\\/OwKzrgw5lFi'
p640
tp641
Rp642
I85
sg1
(g2
(S'S33'
p643
I0
I1
tp644
Rp645
(I3
S'|'
p646
NNNI33
I1
I0
tp647
bS'https:\\/\\/vine.co\\/v\\/enU1M1dO7lQ'
p648
tp649
Rp650
I569
sg1
(g2
(S'S33'
p651
I0
I1
tp652
Rp653
(I3
S'|'
p654
NNNI33
I1
I0
tp655
bS'https:\\/\\/vine.co\\/v\\/igHFKFWVDnO'
p656
tp657
Rp658
I961
sg1
(g2
(S'S33'
p659
I0
I1
tp660
Rp661
(I3
S'|'
p662
NNNI33
I1
I0
tp663
bS'https:\\/\\/vine.co\\/v\\/iF5Dq6QwiHu'
p664
tp665
Rp666
I89
sg1
(g2
(S'S33'
p667
I0
I1
tp668
Rp669
(I3
S'|'
p670
NNNI33
I1
I0
tp671
bS'https:\\/\\/vine.co\\/v\\/i3WmMeT0E7t'
p672
tp673
Rp674
I90
sg1
(g2
(S'S33'
p675
I0
I1
tp676
Rp677
(I3
S'|'
p678
NNNI33
I1
I0
tp679
bS'https:\\/\\/vine.co\\/v\\/OhYIVFW9J2T'
p680
tp681
Rp682
I954
sg1
(g2
(S'S33'
p683
I0
I1
tp684
Rp685
(I3
S'|'
p686
NNNI33
I1
I0
tp687
bS'https:\\/\\/vine.co\\/v\\/i9T5qWO5Mqj'
p688
tp689
Rp690
I1114
sg1
(g2
(S'S33'
p691
I0
I1
tp692
Rp693
(I3
S'|'
p694
NNNI33
I1
I0
tp695
bS'https:\\/\\/vine.co\\/v\\/ObVLP1d13Lg'
p696
tp697
Rp698
I92
sg1
(g2
(S'S33'
p699
I0
I1
tp700
Rp701
(I3
S'|'
p702
NNNI33
I1
I0
tp703
bS'https:\\/\\/vine.co\\/v\\/igZPViZEOuJ'
p704
tp705
Rp706
I93
sg1
(g2
(S'S33'
p707
I0
I1
tp708
Rp709
(I3
S'|'
p710
NNNI33
I1
I0
tp711
bS'https:\\/\\/vine.co\\/v\\/eTeeT2jrm9J'
p712
tp713
Rp714
I94
sg1
(g2
(S'S33'
p715
I0
I1
tp716
Rp717
(I3
S'|'
p718
NNNI33
I1
I0
tp719
bS'https:\\/\\/vine.co\\/v\\/57FxZEg1WIt'
p720
tp721
Rp722
I95
sg1
(g2
(S'S33'
p723
I0
I1
tp724
Rp725
(I3
S'|'
p726
NNNI33
I1
I0
tp727
bS'https:\\/\\/vine.co\\/v\\/iJUx0hi5I0v'
p728
tp729
Rp730
I96
sg1
(g2
(S'S33'
p731
I0
I1
tp732
Rp733
(I3
S'|'
p734
NNNI33
I1
I0
tp735
bS'https:\\/\\/vine.co\\/v\\/iKqJeeDrUem'
p736
tp737
Rp738
I97
sg1
(g2
(S'S33'
p739
I0
I1
tp740
Rp741
(I3
S'|'
p742
NNNI33
I1
I0
tp743
bS'https:\\/\\/vine.co\\/v\\/OTh2AHxxiZ2'
p744
tp745
Rp746
I98
sg1
(g2
(S'S33'
p747
I0
I1
tp748
Rp749
(I3
S'|'
p750
NNNI33
I1
I0
tp751
bS'https:\\/\\/vine.co\\/v\\/hVY7jdmw0wP'
p752
tp753
Rp754
I101
sg1
(g2
(S'S33'
p755
I0
I1
tp756
Rp757
(I3
S'|'
p758
NNNI33
I1
I0
tp759
bS'https:\\/\\/vine.co\\/v\\/ip0MW39mW9E'
p760
tp761
Rp762
I102
sg1
(g2
(S'S33'
p763
I0
I1
tp764
Rp765
(I3
S'|'
p766
NNNI33
I1
I0
tp767
bS'https:\\/\\/vine.co\\/v\\/5wFlj5TxiP7'
p768
tp769
Rp770
I21
sg1
(g2
(S'S33'
p771
I0
I1
tp772
Rp773
(I3
S'|'
p774
NNNI33
I1
I0
tp775
bS'https:\\/\\/vine.co\\/v\\/5g6MUzbiePD'
p776
tp777
Rp778
I104
sg1
(g2
(S'S33'
p779
I0
I1
tp780
Rp781
(I3
S'|'
p782
NNNI33
I1
I0
tp783
bS'https:\\/\\/vine.co\\/v\\/ibIEYLM9Qe5'
p784
tp785
Rp786
I105
sg1
(g2
(S'S33'
p787
I0
I1
tp788
Rp789
(I3
S'|'
p790
NNNI33
I1
I0
tp791
bS'https:\\/\\/vine.co\\/v\\/hqt27ZHA9QB'
p792
tp793
Rp794
I106
sg1
(g2
(S'S33'
p795
I0
I1
tp796
Rp797
(I3
S'|'
p798
NNNI33
I1
I0
tp799
bS'https:\\/\\/vine.co\\/v\\/i3FD2ewvQpx'
p800
tp801
Rp802
I602
sg1
(g2
(S'S33'
p803
I0
I1
tp804
Rp805
(I3
S'|'
p806
NNNI33
I1
I0
tp807
bS'https:\\/\\/vine.co\\/v\\/ibZ3HYI1ddL'
p808
tp809
Rp810
I639
sg1
(g2
(S'S33'
p811
I0
I1
tp812
Rp813
(I3
S'|'
p814
NNNI33
I1
I0
tp815
bS'https:\\/\\/vine.co\\/v\\/OXZg9OQuqZE'
p816
tp817
Rp818
I108
sg1
(g2
(S'S33'
p819
I0
I1
tp820
Rp821
(I3
S'|'
p822
NNNI33
I1
I0
tp823
bS'https:\\/\\/vine.co\\/v\\/eHDUhwh3d2B'
p824
tp825
Rp826
I109
sg1
(g2
(S'S33'
p827
I0
I1
tp828
Rp829
(I3
S'|'
p830
NNNI33
I1
I0
tp831
bS'https:\\/\\/vine.co\\/v\\/heW7uxEmgX1'
p832
tp833
Rp834
I110
sg1
(g2
(S'S33'
p835
I0
I1
tp836
Rp837
(I3
S'|'
p838
NNNI33
I1
I0
tp839
bS'https:\\/\\/vine.co\\/v\\/iwiwaHKWI9x'
p840
tp841
Rp842
I111
sg1
(g2
(S'S33'
p843
I0
I1
tp844
Rp845
(I3
S'|'
p846
NNNI33
I1
I0
tp847
bS'https:\\/\\/vine.co\\/v\\/eYzexeT92tK'
p848
tp849
Rp850
I112
sg1
(g2
(S'S33'
p851
I0
I1
tp852
Rp853
(I3
S'|'
p854
NNNI33
I1
I0
tp855
bS'https:\\/\\/vine.co\\/v\\/5DdPPnxd330'
p856
tp857
Rp858
I113
sg1
(g2
(S'S33'
p859
I0
I1
tp860
Rp861
(I3
S'|'
p862
NNNI33
I1
I0
tp863
bS'https:\\/\\/vine.co\\/v\\/iiYx1uBOKXq'
p864
tp865
Rp866
I114
sg1
(g2
(S'S33'
p867
I0
I1
tp868
Rp869
(I3
S'|'
p870
NNNI33
I1
I0
tp871
bS'https:\\/\\/vine.co\\/v\\/e99h0BM6ABX'
p872
tp873
Rp874
I115
sg1
(g2
(S'S33'
p875
I0
I1
tp876
Rp877
(I3
S'|'
p878
NNNI33
I1
I0
tp879
bS'https:\\/\\/vine.co\\/v\\/hB1qAl7VdqQ'
p880
tp881
Rp882
I653
sg1
(g2
(S'S33'
p883
I0
I1
tp884
Rp885
(I3
S'|'
p886
NNNI33
I1
I0
tp887
bS'https:\\/\\/vine.co\\/v\\/e30YQw30uTJ'
p888
tp889
Rp890
I117
sg1
(g2
(S'S33'
p891
I0
I1
tp892
Rp893
(I3
S'|'
p894
NNNI33
I1
I0
tp895
bS'https:\\/\\/vine.co\\/v\\/i929ll5W06M'
p896
tp897
Rp898
I118
sg1
(g2
(S'S33'
p899
I0
I1
tp900
Rp901
(I3
S'|'
p902
NNNI33
I1
I0
tp903
bS'https:\\/\\/vine.co\\/v\\/ivw1WwiDJje'
p904
tp905
Rp906
I119
sg1
(g2
(S'S33'
p907
I0
I1
tp908
Rp909
(I3
S'|'
p910
NNNI33
I1
I0
tp911
bS'https:\\/\\/vine.co\\/v\\/eVUuEFUaFQz'
p912
tp913
Rp914
I9
sg1
(g2
(S'S33'
p915
I0
I1
tp916
Rp917
(I3
S'|'
p918
NNNI33
I1
I0
tp919
bS'https:\\/\\/vine.co\\/v\\/ilm6epHiUxt'
p920
tp921
Rp922
I121
sg1
(g2
(S'S33'
p923
I0
I1
tp924
Rp925
(I3
S'|'
p926
NNNI33
I1
I0
tp927
bS'https:\\/\\/vine.co\\/v\\/hlBWlu7J3zg'
p928
tp929
Rp930
I122
sg1
(g2
(S'S33'
p931
I0
I1
tp932
Rp933
(I3
S'|'
p934
NNNI33
I1
I0
tp935
bS'https:\\/\\/vine.co\\/v\\/elKBJO6m05u'
p936
tp937
Rp938
I123
sg1
(g2
(S'S33'
p939
I0
I1
tp940
Rp941
(I3
S'|'
p942
NNNI33
I1
I0
tp943
bS'https:\\/\\/vine.co\\/v\\/5He3LZ55X9p'
p944
tp945
Rp946
I124
sg1
(g2
(S'S33'
p947
I0
I1
tp948
Rp949
(I3
S'|'
p950
NNNI33
I1
I0
tp951
bS'https:\\/\\/vine.co\\/v\\/e392B2njbPP'
p952
tp953
Rp954
I777
sg1
(g2
(S'S33'
p955
I0
I1
tp956
Rp957
(I3
S'|'
p958
NNNI33
I1
I0
tp959
bS'https:\\/\\/vine.co\\/v\\/56ZgTdhILX0'
p960
tp961
Rp962
I394
sg1
(g2
(S'S33'
p963
I0
I1
tp964
Rp965
(I3
S'|'
p966
NNNI33
I1
I0
tp967
bS'https:\\/\\/vine.co\\/v\\/eWTx7E63tqZ'
p968
tp969
Rp970
I128
sg1
(g2
(S'S33'
p971
I0
I1
tp972
Rp973
(I3
S'|'
p974
NNNI33
I1
I0
tp975
bS'https:\\/\\/vine.co\\/v\\/ePtPqEgUUV7'
p976
tp977
Rp978
I129
sg1
(g2
(S'S33'
p979
I0
I1
tp980
Rp981
(I3
S'|'
p982
NNNI33
I1
I0
tp983
bS'https:\\/\\/vine.co\\/v\\/O6IPMbX3vU3'
p984
tp985
Rp986
I130
sg1
(g2
(S'S33'
p987
I0
I1
tp988
Rp989
(I3
S'|'
p990
NNNI33
I1
I0
tp991
bS'https:\\/\\/vine.co\\/v\\/5J9u2ieK26a'
p992
tp993
Rp994
I957
sg1
(g2
(S'S33'
p995
I0
I1
tp996
Rp997
(I3
S'|'
p998
NNNI33
I1
I0
tp999
bS'https:\\/\\/vine.co\\/v\\/ilwUWFijMgx'
p1000
tp1001
Rp1002
I131
sg1
(g2
(S'S33'
p1003
I0
I1
tp1004
Rp1005
(I3
S'|'
p1006
NNNI33
I1
I0
tp1007
bS'https:\\/\\/vine.co\\/v\\/eDYrd6twYuz'
p1008
tp1009
Rp1010
I132
sg1
(g2
(S'S33'
p1011
I0
I1
tp1012
Rp1013
(I3
S'|'
p1014
NNNI33
I1
I0
tp1015
bS'https:\\/\\/vine.co\\/v\\/Owhw2UeJbp9'
p1016
tp1017
Rp1018
I133
sg1
(g2
(S'S33'
p1019
I0
I1
tp1020
Rp1021
(I3
S'|'
p1022
NNNI33
I1
I0
tp1023
bS'https:\\/\\/vine.co\\/v\\/h5UV1h22xKx'
p1024
tp1025
Rp1026
I135
sg1
(g2
(S'S33'
p1027
I0
I1
tp1028
Rp1029
(I3
S'|'
p1030
NNNI33
I1
I0
tp1031
bS'https:\\/\\/vine.co\\/v\\/eHPY661bOJA'
p1032
tp1033
Rp1034
I136
sg1
(g2
(S'S33'
p1035
I0
I1
tp1036
Rp1037
(I3
S'|'
p1038
NNNI33
I1
I0
tp1039
bS'https:\\/\\/vine.co\\/v\\/5zTdBKBQT7w'
p1040
tp1041
Rp1042
I137
sg1
(g2
(S'S33'
p1043
I0
I1
tp1044
Rp1045
(I3
S'|'
p1046
NNNI33
I1
I0
tp1047
bS'https:\\/\\/vine.co\\/v\\/5JZvxgbnZKm'
p1048
tp1049
Rp1050
I138
sg1
(g2
(S'S33'
p1051
I0
I1
tp1052
Rp1053
(I3
S'|'
p1054
NNNI33
I1
I0
tp1055
bS'https:\\/\\/vine.co\\/v\\/eE1qApQXAtX'
p1056
tp1057
Rp1058
I139
sg1
(g2
(S'S33'
p1059
I0
I1
tp1060
Rp1061
(I3
S'|'
p1062
NNNI33
I1
I0
tp1063
bS'https:\\/\\/vine.co\\/v\\/eDlKO0lTKvZ'
p1064
tp1065
Rp1066
I140
sg1
(g2
(S'S33'
p1067
I0
I1
tp1068
Rp1069
(I3
S'|'
p1070
NNNI33
I1
I0
tp1071
bS'https:\\/\\/vine.co\\/v\\/OIWYw72EYiJ'
p1072
tp1073
Rp1074
I397
sg1
(g2
(S'S33'
p1075
I0
I1
tp1076
Rp1077
(I3
S'|'
p1078
NNNI33
I1
I0
tp1079
bS'https:\\/\\/vine.co\\/v\\/i0r33O750UW'
p1080
tp1081
Rp1082
I17
sg1
(g2
(S'S33'
p1083
I0
I1
tp1084
Rp1085
(I3
S'|'
p1086
NNNI33
I1
I0
tp1087
bS'https:\\/\\/vine.co\\/v\\/OFMr5quiAbh'
p1088
tp1089
Rp1090
I143
sg1
(g2
(S'S33'
p1091
I0
I1
tp1092
Rp1093
(I3
S'|'
p1094
NNNI33
I1
I0
tp1095
bS'https:\\/\\/vine.co\\/v\\/OttYwedqW3j'
p1096
tp1097
Rp1098
I144
sg1
(g2
(S'S33'
p1099
I0
I1
tp1100
Rp1101
(I3
S'|'
p1102
NNNI33
I1
I0
tp1103
bS'https:\\/\\/vine.co\\/v\\/MlBJDDjMQq2'
p1104
tp1105
Rp1106
I145
sg1
(g2
(S'S33'
p1107
I0
I1
tp1108
Rp1109
(I3
S'|'
p1110
NNNI33
I1
I0
tp1111
bS'https:\\/\\/vine.co\\/v\\/O9aQz6B0nhw'
p1112
tp1113
Rp1114
I146
sg1
(g2
(S'S33'
p1115
I0
I1
tp1116
Rp1117
(I3
S'|'
p1118
NNNI33
I1
I0
tp1119
bS'https:\\/\\/vine.co\\/v\\/eTPPEvrtTLj'
p1120
tp1121
Rp1122
I147
sg1
(g2
(S'S33'
p1123
I0
I1
tp1124
Rp1125
(I3
S'|'
p1126
NNNI33
I1
I0
tp1127
bS'https:\\/\\/vine.co\\/v\\/eYrrPU2wbul'
p1128
tp1129
Rp1130
I148
sg1
(g2
(S'S33'
p1131
I0
I1
tp1132
Rp1133
(I3
S'|'
p1134
NNNI33
I1
I0
tp1135
bS'https:\\/\\/vine.co\\/v\\/ibxWhlAjAht'
p1136
tp1137
Rp1138
I149
sg1
(g2
(S'S33'
p1139
I0
I1
tp1140
Rp1141
(I3
S'|'
p1142
NNNI33
I1
I0
tp1143
bS'https:\\/\\/vine.co\\/v\\/erMxMKgvWuT'
p1144
tp1145
Rp1146
I151
sg1
(g2
(S'S33'
p1147
I0
I1
tp1148
Rp1149
(I3
S'|'
p1150
NNNI33
I1
I0
tp1151
bS'https:\\/\\/vine.co\\/v\\/OP9wHzdWXFj'
p1152
tp1153
Rp1154
I152
sg1
(g2
(S'S33'
p1155
I0
I1
tp1156
Rp1157
(I3
S'|'
p1158
NNNI33
I1
I0
tp1159
bS'https:\\/\\/vine.co\\/v\\/O0eDwpD1YL6'
p1160
tp1161
Rp1162
I153
sg1
(g2
(S'S33'
p1163
I0
I1
tp1164
Rp1165
(I3
S'|'
p1166
NNNI33
I1
I0
tp1167
bS'https:\\/\\/vine.co\\/v\\/eFQ9MYHA2Tx'
p1168
tp1169
Rp1170
I192
sg1
(g2
(S'S33'
p1171
I0
I1
tp1172
Rp1173
(I3
S'|'
p1174
NNNI33
I1
I0
tp1175
bS'https:\\/\\/vine.co\\/v\\/O5jJUK73v1A'
p1176
tp1177
Rp1178
I155
sg1
(g2
(S'S33'
p1179
I0
I1
tp1180
Rp1181
(I3
S'|'
p1182
NNNI33
I1
I0
tp1183
bS'https:\\/\\/vine.co\\/v\\/i1qBbUP9MIQ'
p1184
tp1185
Rp1186
I156
sg1
(g2
(S'S33'
p1187
I0
I1
tp1188
Rp1189
(I3
S'|'
p1190
NNNI33
I1
I0
tp1191
bS'https:\\/\\/vine.co\\/v\\/iMm2OdgxwAK'
p1192
tp1193
Rp1194
I157
sg1
(g2
(S'S33'
p1195
I0
I1
tp1196
Rp1197
(I3
S'|'
p1198
NNNI33
I1
I0
tp1199
bS'https:\\/\\/vine.co\\/v\\/5wwVW23MXZm'
p1200
tp1201
Rp1202
I158
sg1
(g2
(S'S33'
p1203
I0
I1
tp1204
Rp1205
(I3
S'|'
p1206
NNNI33
I1
I0
tp1207
bS'https:\\/\\/vine.co\\/v\\/ijIvXgYZXie'
p1208
tp1209
Rp1210
I159
sg1
(g2
(S'S33'
p1211
I0
I1
tp1212
Rp1213
(I3
S'|'
p1214
NNNI33
I1
I0
tp1215
bS'https:\\/\\/vine.co\\/v\\/e9VhbMqXFm0'
p1216
tp1217
Rp1218
I162
sg1
(g2
(S'S33'
p1219
I0
I1
tp1220
Rp1221
(I3
S'|'
p1222
NNNI33
I1
I0
tp1223
bS'https:\\/\\/vine.co\\/v\\/h3UVgQPjv9F'
p1224
tp1225
Rp1226
I163
sg1
(g2
(S'S33'
p1227
I0
I1
tp1228
Rp1229
(I3
S'|'
p1230
NNNI33
I1
I0
tp1231
bS'https:\\/\\/vine.co\\/v\\/OOP9JLbJeLK'
p1232
tp1233
Rp1234
I164
sg1
(g2
(S'S33'
p1235
I0
I1
tp1236
Rp1237
(I3
S'|'
p1238
NNNI33
I1
I0
tp1239
bS'https:\\/\\/vine.co\\/v\\/5pjHurag2wU'
p1240
tp1241
Rp1242
I165
sg1
(g2
(S'S33'
p1243
I0
I1
tp1244
Rp1245
(I3
S'|'
p1246
NNNI33
I1
I0
tp1247
bS'https:\\/\\/vine.co\\/v\\/hrjDeTVvhzt'
p1248
tp1249
Rp1250
I317
sg1
(g2
(S'S33'
p1251
I0
I1
tp1252
Rp1253
(I3
S'|'
p1254
NNNI33
I1
I0
tp1255
bS'https:\\/\\/vine.co\\/v\\/eEpu37Fw0qv'
p1256
tp1257
Rp1258
I167
sg1
(g2
(S'S33'
p1259
I0
I1
tp1260
Rp1261
(I3
S'|'
p1262
NNNI33
I1
I0
tp1263
bS'https:\\/\\/vine.co\\/v\\/ePrgVIT79Da'
p1264
tp1265
Rp1266
I168
sg1
(g2
(S'S33'
p1267
I0
I1
tp1268
Rp1269
(I3
S'|'
p1270
NNNI33
I1
I0
tp1271
bS'https:\\/\\/vine.co\\/v\\/5j5MadF2HZ2'
p1272
tp1273
Rp1274
I170
sg1
(g2
(S'S33'
p1275
I0
I1
tp1276
Rp1277
(I3
S'|'
p1278
NNNI33
I1
I0
tp1279
bS'https:\\/\\/vine.co\\/v\\/ed1UbeBiIOr'
p1280
tp1281
Rp1282
I171
sg1
(g2
(S'S33'
p1283
I0
I1
tp1284
Rp1285
(I3
S'|'
p1286
NNNI33
I1
I0
tp1287
bS'https:\\/\\/vine.co\\/v\\/OqXgIBteqVI'
p1288
tp1289
Rp1290
I172
sg1
(g2
(S'S33'
p1291
I0
I1
tp1292
Rp1293
(I3
S'|'
p1294
NNNI33
I1
I0
tp1295
bS'https:\\/\\/vine.co\\/v\\/evgnvJlBO21'
p1296
tp1297
Rp1298
I173
sg1
(g2
(S'S33'
p1299
I0
I1
tp1300
Rp1301
(I3
S'|'
p1302
NNNI33
I1
I0
tp1303
bS'https:\\/\\/vine.co\\/v\\/iWVilhUg3bL'
p1304
tp1305
Rp1306
I174
sg1
(g2
(S'S33'
p1307
I0
I1
tp1308
Rp1309
(I3
S'|'
p1310
NNNI33
I1
I0
tp1311
bS'https:\\/\\/vine.co\\/v\\/eKiqvPmwxVT'
p1312
tp1313
Rp1314
I783
sg1
(g2
(S'S33'
p1315
I0
I1
tp1316
Rp1317
(I3
S'|'
p1318
NNNI33
I1
I0
tp1319
bS'https:\\/\\/vine.co\\/v\\/O7q3PUQ6KtW'
p1320
tp1321
Rp1322
I175
sg1
(g2
(S'S33'
p1323
I0
I1
tp1324
Rp1325
(I3
S'|'
p1326
NNNI33
I1
I0
tp1327
bS'https:\\/\\/vine.co\\/v\\/M1XIvHdzwjI'
p1328
tp1329
Rp1330
I176
sg1
(g2
(S'S33'
p1331
I0
I1
tp1332
Rp1333
(I3
S'|'
p1334
NNNI33
I1
I0
tp1335
bS'https:\\/\\/vine.co\\/v\\/5wIlb1jpjwi'
p1336
tp1337
Rp1338
I177
sg1
(g2
(S'S33'
p1339
I0
I1
tp1340
Rp1341
(I3
S'|'
p1342
NNNI33
I1
I0
tp1343
bS'https:\\/\\/vine.co\\/v\\/i6EnX1hzxAt'
p1344
tp1345
Rp1346
I178
sg1
(g2
(S'S33'
p1347
I0
I1
tp1348
Rp1349
(I3
S'|'
p1350
NNNI33
I1
I0
tp1351
bS'https:\\/\\/vine.co\\/v\\/MZmwQn02lDu'
p1352
tp1353
Rp1354
I822
sg1
(g2
(S'S33'
p1355
I0
I1
tp1356
Rp1357
(I3
S'|'
p1358
NNNI33
I1
I0
tp1359
bS'https:\\/\\/vine.co\\/v\\/ezMVqK2jTXF'
p1360
tp1361
Rp1362
I179
sg1
(g2
(S'S33'
p1363
I0
I1
tp1364
Rp1365
(I3
S'|'
p1366
NNNI33
I1
I0
tp1367
bS'https:\\/\\/vine.co\\/v\\/i9rKtEQ7nXJ'
p1368
tp1369
Rp1370
I804
sg1
(g2
(S'S33'
p1371
I0
I1
tp1372
Rp1373
(I3
S'|'
p1374
NNNI33
I1
I0
tp1375
bS'https:\\/\\/vine.co\\/v\\/Mv3PjnOa6uL'
p1376
tp1377
Rp1378
I180
sg1
(g2
(S'S33'
p1379
I0
I1
tp1380
Rp1381
(I3
S'|'
p1382
NNNI33
I1
I0
tp1383
bS'https:\\/\\/vine.co\\/v\\/MY9FwQ2E5i1'
p1384
tp1385
Rp1386
I181
sg1
(g2
(S'S33'
p1387
I0
I1
tp1388
Rp1389
(I3
S'|'
p1390
NNNI33
I1
I0
tp1391
bS'https:\\/\\/vine.co\\/v\\/M1FZLwv5K3T'
p1392
tp1393
Rp1394
I182
sg1
(g2
(S'S33'
p1395
I0
I1
tp1396
Rp1397
(I3
S'|'
p1398
NNNI33
I1
I0
tp1399
bS'https:\\/\\/vine.co\\/v\\/hA91A75Tpw7'
p1400
tp1401
Rp1402
I980
sg1
(g2
(S'S33'
p1403
I0
I1
tp1404
Rp1405
(I3
S'|'
p1406
NNNI33
I1
I0
tp1407
bS'https:\\/\\/vine.co\\/v\\/huqLEwUJ5uM'
p1408
tp1409
Rp1410
I183
sg1
(g2
(S'S33'
p1411
I0
I1
tp1412
Rp1413
(I3
S'|'
p1414
NNNI33
I1
I0
tp1415
bS'https:\\/\\/vine.co\\/v\\/OXbYzWm9jlq'
p1416
tp1417
Rp1418
I184
sg1
(g2
(S'S33'
p1419
I0
I1
tp1420
Rp1421
(I3
S'|'
p1422
NNNI33
I1
I0
tp1423
bS'https:\\/\\/vine.co\\/v\\/eFQwaUzYb7Z'
p1424
tp1425
Rp1426
I185
sg1
(g2
(S'S33'
p1427
I0
I1
tp1428
Rp1429
(I3
S'|'
p1430
NNNI33
I1
I0
tp1431
bS'https:\\/\\/vine.co\\/v\\/iV5dQuY6ZUu'
p1432
tp1433
Rp1434
I186
sg1
(g2
(S'S33'
p1435
I0
I1
tp1436
Rp1437
(I3
S'|'
p1438
NNNI33
I1
I0
tp1439
bS'https:\\/\\/vine.co\\/v\\/iQZ6piwKP7z'
p1440
tp1441
Rp1442
I187
sg1
(g2
(S'S33'
p1443
I0
I1
tp1444
Rp1445
(I3
S'|'
p1446
NNNI33
I1
I0
tp1447
bS'https:\\/\\/vine.co\\/v\\/Mthe1JLvKm3'
p1448
tp1449
Rp1450
I399
sg1
(g2
(S'S33'
p1451
I0
I1
tp1452
Rp1453
(I3
S'|'
p1454
NNNI33
I1
I0
tp1455
bS'https:\\/\\/vine.co\\/v\\/OFrzE2nVlm3'
p1456
tp1457
Rp1458
I189
sg1
(g2
(S'S33'
p1459
I0
I1
tp1460
Rp1461
(I3
S'|'
p1462
NNNI33
I1
I0
tp1463
bS'https:\\/\\/vine.co\\/v\\/i1n6nWummFK'
p1464
tp1465
Rp1466
I190
sg1
(g2
(S'S33'
p1467
I0
I1
tp1468
Rp1469
(I3
S'|'
p1470
NNNI33
I1
I0
tp1471
bS'https:\\/\\/vine.co\\/v\\/MrZ7Pt773XE'
p1472
tp1473
Rp1474
I191
sg1
(g2
(S'S33'
p1475
I0
I1
tp1476
Rp1477
(I3
S'|'
p1478
NNNI33
I1
I0
tp1479
bS'https:\\/\\/vine.co\\/v\\/MMAiVTwTbvW'
p1480
tp1481
Rp1482
I194
sg1
(g2
(S'S33'
p1483
I0
I1
tp1484
Rp1485
(I3
S'|'
p1486
NNNI33
I1
I0
tp1487
bS'https:\\/\\/vine.co\\/v\\/ibX0PO0FQlp'
p1488
tp1489
Rp1490
I1108
sg1
(g2
(S'S33'
p1491
I0
I1
tp1492
Rp1493
(I3
S'|'
p1494
NNNI33
I1
I0
tp1495
bS'https:\\/\\/vine.co\\/v\\/5eDzuAmKEJ9'
p1496
tp1497
Rp1498
I620
sg1
(g2
(S'S33'
p1499
I0
I1
tp1500
Rp1501
(I3
S'|'
p1502
NNNI33
I1
I0
tp1503
bS'https:\\/\\/vine.co\\/v\\/O3l3rI5I0YX'
p1504
tp1505
Rp1506
I195
sg1
(g2
(S'S33'
p1507
I0
I1
tp1508
Rp1509
(I3
S'|'
p1510
NNNI33
I1
I0
tp1511
bS'https:\\/\\/vine.co\\/v\\/OuTVHxUPzmt'
p1512
tp1513
Rp1514
I196
sg1
(g2
(S'S33'
p1515
I0
I1
tp1516
Rp1517
(I3
S'|'
p1518
NNNI33
I1
I0
tp1519
bS'https:\\/\\/vine.co\\/v\\/et2jzYiPigh'
p1520
tp1521
Rp1522
I590
sg1
(g2
(S'S33'
p1523
I0
I1
tp1524
Rp1525
(I3
S'|'
p1526
NNNI33
I1
I0
tp1527
bS'https:\\/\\/vine.co\\/v\\/inAiBuI6UOX'
p1528
tp1529
Rp1530
I198
sg1
(g2
(S'S33'
p1531
I0
I1
tp1532
Rp1533
(I3
S'|'
p1534
NNNI33
I1
I0
tp1535
bS'https:\\/\\/vine.co\\/v\\/MBpghQOeJId'
p1536
tp1537
Rp1538
I199
sg1
(g2
(S'S33'
p1539
I0
I1
tp1540
Rp1541
(I3
S'|'
p1542
NNNI33
I1
I0
tp1543
bS'https:\\/\\/vine.co\\/v\\/56WDKQXUaJv'
p1544
tp1545
Rp1546
I200
sg1
(g2
(S'S33'
p1547
I0
I1
tp1548
Rp1549
(I3
S'|'
p1550
NNNI33
I1
I0
tp1551
bS'https:\\/\\/vine.co\\/v\\/M9l5MIZAqB5'
p1552
tp1553
Rp1554
I885
sg1
(g2
(S'S33'
p1555
I0
I1
tp1556
Rp1557
(I3
S'|'
p1558
NNNI33
I1
I0
tp1559
bS'https:\\/\\/vine.co\\/v\\/5dmzqetmmez'
p1560
tp1561
Rp1562
I201
sg1
(g2
(S'S33'
p1563
I0
I1
tp1564
Rp1565
(I3
S'|'
p1566
NNNI33
I1
I0
tp1567
bS'https:\\/\\/vine.co\\/v\\/MXz1B7h3pmt'
p1568
tp1569
Rp1570
I202
sg1
(g2
(S'S33'
p1571
I0
I1
tp1572
Rp1573
(I3
S'|'
p1574
NNNI33
I1
I0
tp1575
bS'https:\\/\\/vine.co\\/v\\/exWnWiOIzLl'
p1576
tp1577
Rp1578
I203
sg1
(g2
(S'S33'
p1579
I0
I1
tp1580
Rp1581
(I3
S'|'
p1582
NNNI33
I1
I0
tp1583
bS'https:\\/\\/vine.co\\/v\\/5JUMvDwQ6ue'
p1584
tp1585
Rp1586
I204
sg1
(g2
(S'S33'
p1587
I0
I1
tp1588
Rp1589
(I3
S'|'
p1590
NNNI33
I1
I0
tp1591
bS'https:\\/\\/vine.co\\/v\\/OJXBuF3AmBP'
p1592
tp1593
Rp1594
I205
sg1
(g2
(S'S33'
p1595
I0
I1
tp1596
Rp1597
(I3
S'|'
p1598
NNNI33
I1
I0
tp1599
bS'https:\\/\\/vine.co\\/v\\/O3dFwj1FjvT'
p1600
tp1601
Rp1602
I206
sg1
(g2
(S'S33'
p1603
I0
I1
tp1604
Rp1605
(I3
S'|'
p1606
NNNI33
I1
I0
tp1607
bS'https:\\/\\/vine.co\\/v\\/eheteHl9AO0'
p1608
tp1609
Rp1610
I790
sg1
(g2
(S'S33'
p1611
I0
I1
tp1612
Rp1613
(I3
S'|'
p1614
NNNI33
I1
I0
tp1615
bS'https:\\/\\/vine.co\\/v\\/MUpYJDgHrj3'
p1616
tp1617
Rp1618
I208
sg1
(g2
(S'S33'
p1619
I0
I1
tp1620
Rp1621
(I3
S'|'
p1622
NNNI33
I1
I0
tp1623
bS'https:\\/\\/vine.co\\/v\\/5W2Dg3XPX7a'
p1624
tp1625
Rp1626
I209
sg1
(g2
(S'S33'
p1627
I0
I1
tp1628
Rp1629
(I3
S'|'
p1630
NNNI33
I1
I0
tp1631
bS'https:\\/\\/vine.co\\/v\\/M7K0TphVYd3'
p1632
tp1633
Rp1634
I227
sg1
(g2
(S'S33'
p1635
I0
I1
tp1636
Rp1637
(I3
S'|'
p1638
NNNI33
I1
I0
tp1639
bS'https:\\/\\/vine.co\\/v\\/MmFMDn7pL5K'
p1640
tp1641
Rp1642
I211
sg1
(g2
(S'S33'
p1643
I0
I1
tp1644
Rp1645
(I3
S'|'
p1646
NNNI33
I1
I0
tp1647
bS'https:\\/\\/vine.co\\/v\\/eDiQEwX0bam'
p1648
tp1649
Rp1650
I212
sg1
(g2
(S'S33'
p1651
I0
I1
tp1652
Rp1653
(I3
S'|'
p1654
NNNI33
I1
I0
tp1655
bS'https:\\/\\/vine.co\\/v\\/5XLJM9LtDB3'
p1656
tp1657
Rp1658
I213
sg1
(g2
(S'S33'
p1659
I0
I1
tp1660
Rp1661
(I3
S'|'
p1662
NNNI33
I1
I0
tp1663
bS'https:\\/\\/vine.co\\/v\\/5W1gB5YDt96'
p1664
tp1665
Rp1666
I214
sg1
(g2
(S'S33'
p1667
I0
I1
tp1668
Rp1669
(I3
S'|'
p1670
NNNI33
I1
I0
tp1671
bS'https:\\/\\/vine.co\\/v\\/OH7Pj2jMKq0'
p1672
tp1673
Rp1674
I406
sg1
(g2
(S'S33'
p1675
I0
I1
tp1676
Rp1677
(I3
S'|'
p1678
NNNI33
I1
I0
tp1679
bS'https:\\/\\/vine.co\\/v\\/eUzVMrJ0x9l'
p1680
tp1681
Rp1682
I216
sg1
(g2
(S'S33'
p1683
I0
I1
tp1684
Rp1685
(I3
S'|'
p1686
NNNI33
I1
I0
tp1687
bS'https:\\/\\/vine.co\\/v\\/iTP56eOQJdl'
p1688
tp1689
Rp1690
I407
sg1
(g2
(S'S33'
p1691
I0
I1
tp1692
Rp1693
(I3
S'|'
p1694
NNNI33
I1
I0
tp1695
bS'https:\\/\\/vine.co\\/v\\/O2mEInUizIL'
p1696
tp1697
Rp1698
I218
sg1
(g2
(S'S33'
p1699
I0
I1
tp1700
Rp1701
(I3
S'|'
p1702
NNNI33
I1
I0
tp1703
bS'https:\\/\\/vine.co\\/v\\/OKPhvgQJgYD'
p1704
tp1705
Rp1706
I220
sg1
(g2
(S'S33'
p1707
I0
I1
tp1708
Rp1709
(I3
S'|'
p1710
NNNI33
I1
I0
tp1711
bS'https:\\/\\/vine.co\\/v\\/iwjHthlamZO'
p1712
tp1713
Rp1714
I221
sg1
(g2
(S'S33'
p1715
I0
I1
tp1716
Rp1717
(I3
S'|'
p1718
NNNI33
I1
I0
tp1719
bS'https:\\/\\/vine.co\\/v\\/eLVlbnArPmd'
p1720
tp1721
Rp1722
I222
sg1
(g2
(S'S33'
p1723
I0
I1
tp1724
Rp1725
(I3
S'|'
p1726
NNNI33
I1
I0
tp1727
bS'https:\\/\\/vine.co\\/v\\/eFaeFbYBwuP'
p1728
tp1729
Rp1730
I223
sg1
(g2
(S'S33'
p1731
I0
I1
tp1732
Rp1733
(I3
S'|'
p1734
NNNI33
I1
I0
tp1735
bS'https:\\/\\/vine.co\\/v\\/OWpwEOV1JhT'
p1736
tp1737
Rp1738
I409
sg1
(g2
(S'S33'
p1739
I0
I1
tp1740
Rp1741
(I3
S'|'
p1742
NNNI33
I1
I0
tp1743
bS'https:\\/\\/vine.co\\/v\\/egxDmYi7QYK'
p1744
tp1745
Rp1746
I225
sg1
(g2
(S'S33'
p1747
I0
I1
tp1748
Rp1749
(I3
S'|'
p1750
NNNI33
I1
I0
tp1751
bS'https:\\/\\/vine.co\\/v\\/en3larExZjT'
p1752
tp1753
Rp1754
I226
sg1
(g2
(S'S33'
p1755
I0
I1
tp1756
Rp1757
(I3
S'|'
p1758
NNNI33
I1
I0
tp1759
bS'https:\\/\\/vine.co\\/v\\/eOUK6TiDIl5'
p1760
tp1761
Rp1762
I307
sg1
(g2
(S'S33'
p1763
I0
I1
tp1764
Rp1765
(I3
S'|'
p1766
NNNI33
I1
I0
tp1767
bS'https:\\/\\/vine.co\\/v\\/ODDDwazaAmv'
p1768
tp1769
Rp1770
I228
sg1
(g2
(S'S33'
p1771
I0
I1
tp1772
Rp1773
(I3
S'|'
p1774
NNNI33
I1
I0
tp1775
bS'https:\\/\\/vine.co\\/v\\/O2AlKFazThU'
p1776
tp1777
Rp1778
I229
sg1
(g2
(S'S33'
p1779
I0
I1
tp1780
Rp1781
(I3
S'|'
p1782
NNNI33
I1
I0
tp1783
bS'https:\\/\\/vine.co\\/v\\/eW775mLtFZ5'
p1784
tp1785
Rp1786
I230
sg1
(g2
(S'S33'
p1787
I0
I1
tp1788
Rp1789
(I3
S'|'
p1790
NNNI33
I1
I0
tp1791
bS'https:\\/\\/vine.co\\/v\\/5bezz2QJp2w'
p1792
tp1793
Rp1794
I231
sg1
(g2
(S'S33'
p1795
I0
I1
tp1796
Rp1797
(I3
S'|'
p1798
NNNI33
I1
I0
tp1799
bS'https:\\/\\/vine.co\\/v\\/bV5Qjx1HYPM'
p1800
tp1801
Rp1802
I795
sg1
(g2
(S'S33'
p1803
I0
I1
tp1804
Rp1805
(I3
S'|'
p1806
NNNI33
I1
I0
tp1807
bS'https:\\/\\/vine.co\\/v\\/M5l7d613qgm'
p1808
tp1809
Rp1810
I597
sg1
(g2
(S'S33'
p1811
I0
I1
tp1812
Rp1813
(I3
S'|'
p1814
NNNI33
I1
I0
tp1815
bS'https:\\/\\/vine.co\\/v\\/eXudDWX1lpl'
p1816
tp1817
Rp1818
I233
sg1
(g2
(S'S33'
p1819
I0
I1
tp1820
Rp1821
(I3
S'|'
p1822
NNNI33
I1
I0
tp1823
bS'https:\\/\\/vine.co\\/v\\/OE1YK9rwlwX'
p1824
tp1825
Rp1826
I234
sg1
(g2
(S'S33'
p1827
I0
I1
tp1828
Rp1829
(I3
S'|'
p1830
NNNI33
I1
I0
tp1831
bS'https:\\/\\/vine.co\\/v\\/iFhQuqzIUJ6'
p1832
tp1833
Rp1834
I235
sg1
(g2
(S'S33'
p1835
I0
I1
tp1836
Rp1837
(I3
S'|'
p1838
NNNI33
I1
I0
tp1839
bS'https:\\/\\/vine.co\\/v\\/e2rwtzbJlMH'
p1840
tp1841
Rp1842
I598
sg1
(g2
(S'S33'
p1843
I0
I1
tp1844
Rp1845
(I3
S'|'
p1846
NNNI33
I1
I0
tp1847
bS'https:\\/\\/vine.co\\/v\\/eUQK1aXKxpU'
p1848
tp1849
Rp1850
I237
sg1
(g2
(S'S33'
p1851
I0
I1
tp1852
Rp1853
(I3
S'|'
p1854
NNNI33
I1
I0
tp1855
bS'https:\\/\\/vine.co\\/v\\/ih0rU2z62BK'
p1856
tp1857
Rp1858
I797
sg1
(g2
(S'S33'
p1859
I0
I1
tp1860
Rp1861
(I3
S'|'
p1862
NNNI33
I1
I0
tp1863
bS'https:\\/\\/vine.co\\/v\\/edd351WTm9I'
p1864
tp1865
Rp1866
I1044
sg1
(g2
(S'S33'
p1867
I0
I1
tp1868
Rp1869
(I3
S'|'
p1870
NNNI33
I1
I0
tp1871
bS'https:\\/\\/vine.co\\/v\\/h03FzurZYtd'
p1872
tp1873
Rp1874
I238
sg1
(g2
(S'S33'
p1875
I0
I1
tp1876
Rp1877
(I3
S'|'
p1878
NNNI33
I1
I0
tp1879
bS'https:\\/\\/vine.co\\/v\\/i7lImB7PMMI'
p1880
tp1881
Rp1882
I645
sg1
(g2
(S'S33'
p1883
I0
I1
tp1884
Rp1885
(I3
S'|'
p1886
NNNI33
I1
I0
tp1887
bS'https:\\/\\/vine.co\\/v\\/OPPpb2q5XV2'
p1888
tp1889
Rp1890
I239
sg1
(g2
(S'S33'
p1891
I0
I1
tp1892
Rp1893
(I3
S'|'
p1894
NNNI33
I1
I0
tp1895
bS'https:\\/\\/vine.co\\/v\\/ed2KZpiMUYW'
p1896
tp1897
Rp1898
I240
sg1
(g2
(S'S33'
p1899
I0
I1
tp1900
Rp1901
(I3
S'|'
p1902
NNNI33
I1
I0
tp1903
bS'https:\\/\\/vine.co\\/v\\/hB7Q9OEAaXl'
p1904
tp1905
Rp1906
I241
sg1
(g2
(S'S33'
p1907
I0
I1
tp1908
Rp1909
(I3
S'|'
p1910
NNNI33
I1
I0
tp1911
bS'https:\\/\\/vine.co\\/v\\/ixl9pZidL1D'
p1912
tp1913
Rp1914
I292
sg1
(g2
(S'S33'
p1915
I0
I1
tp1916
Rp1917
(I3
S'|'
p1918
NNNI33
I1
I0
tp1919
bS'https:\\/\\/vine.co\\/v\\/OFFgQprw6l2'
p1920
tp1921
Rp1922
I244
sg1
(g2
(S'S33'
p1923
I0
I1
tp1924
Rp1925
(I3
S'|'
p1926
NNNI33
I1
I0
tp1927
bS'https:\\/\\/vine.co\\/v\\/hVTah1YPezJ'
p1928
tp1929
Rp1930
I245
sg1
(g2
(S'S33'
p1931
I0
I1
tp1932
Rp1933
(I3
S'|'
p1934
NNNI33
I1
I0
tp1935
bS'https:\\/\\/vine.co\\/v\\/ebqxAu5bIWd'
p1936
tp1937
Rp1938
I309
sg1
(g2
(S'S33'
p1939
I0
I1
tp1940
Rp1941
(I3
S'|'
p1942
NNNI33
I1
I0
tp1943
bS'https:\\/\\/vine.co\\/v\\/h2vdAXiWv5j'
p1944
tp1945
Rp1946
I247
sg1
(g2
(S'S33'
p1947
I0
I1
tp1948
Rp1949
(I3
S'|'
p1950
NNNI33
I1
I0
tp1951
bS'https:\\/\\/vine.co\\/v\\/5bDTl0BmUdP'
p1952
tp1953
Rp1954
I248
sg1
(g2
(S'S33'
p1955
I0
I1
tp1956
Rp1957
(I3
S'|'
p1958
NNNI33
I1
I0
tp1959
bS'https:\\/\\/vine.co\\/v\\/ObAiTBiWzL2'
p1960
tp1961
Rp1962
I250
sg1
(g2
(S'S33'
p1963
I0
I1
tp1964
Rp1965
(I3
S'|'
p1966
NNNI33
I1
I0
tp1967
bS'https:\\/\\/vine.co\\/v\\/5XjlIwiHgd3'
p1968
tp1969
Rp1970
I251
sg1
(g2
(S'S33'
p1971
I0
I1
tp1972
Rp1973
(I3
S'|'
p1974
NNNI33
I1
I0
tp1975
bS'https:\\/\\/vine.co\\/v\\/ixH2e1bqz5D'
p1976
tp1977
Rp1978
I252
sg1
(g2
(S'S33'
p1979
I0
I1
tp1980
Rp1981
(I3
S'|'
p1982
NNNI33
I1
I0
tp1983
bS'https:\\/\\/vine.co\\/v\\/O0WYnTwXjIi'
p1984
tp1985
Rp1986
I253
sg1
(g2
(S'S33'
p1987
I0
I1
tp1988
Rp1989
(I3
S'|'
p1990
NNNI33
I1
I0
tp1991
bS'https:\\/\\/vine.co\\/v\\/OTzhajZda33'
p1992
tp1993
Rp1994
I254
sg1
(g2
(S'S33'
p1995
I0
I1
tp1996
Rp1997
(I3
S'|'
p1998
NNNI33
I1
I0
tp1999
bS'https:\\/\\/vine.co\\/v\\/hF1vjznV7rM'
p2000
tp2001
Rp2002
I803
sg1
(g2
(S'S33'
p2003
I0
I1
tp2004
Rp2005
(I3
S'|'
p2006
NNNI33
I1
I0
tp2007
bS'https:\\/\\/vine.co\\/v\\/hhDwqj3wi0U'
p2008
tp2009
Rp2010
I255
sg1
(g2
(S'S33'
p2011
I0
I1
tp2012
Rp2013
(I3
S'|'
p2014
NNNI33
I1
I0
tp2015
bS'https:\\/\\/vine.co\\/v\\/i5K0gKD6Ulv'
p2016
tp2017
Rp2018
I256
sg1
(g2
(S'S33'
p2019
I0
I1
tp2020
Rp2021
(I3
S'|'
p2022
NNNI33
I1
I0
tp2023
bS'https:\\/\\/vine.co\\/v\\/e1vZMFtdODA'
p2024
tp2025
Rp2026
I257
sg1
(g2
(S'S33'
p2027
I0
I1
tp2028
Rp2029
(I3
S'|'
p2030
NNNI33
I1
I0
tp2031
bS'https:\\/\\/vine.co\\/v\\/e7QhhjvvTUe'
p2032
tp2033
Rp2034
I259
sg1
(g2
(S'S33'
p2035
I0
I1
tp2036
Rp2037
(I3
S'|'
p2038
NNNI33
I1
I0
tp2039
bS'https:\\/\\/vine.co\\/v\\/irMdgU253HU'
p2040
tp2041
Rp2042
I1089
sg1
(g2
(S'S33'
p2043
I0
I1
tp2044
Rp2045
(I3
S'|'
p2046
NNNI33
I1
I0
tp2047
bS'https:\\/\\/vine.co\\/v\\/Mnd9IpYmXID'
p2048
tp2049
Rp2050
I260
sg1
(g2
(S'S33'
p2051
I0
I1
tp2052
Rp2053
(I3
S'|'
p2054
NNNI33
I1
I0
tp2055
bS'https:\\/\\/vine.co\\/v\\/5X1507A9q3g'
p2056
tp2057
Rp2058
I261
sg1
(g2
(S'S33'
p2059
I0
I1
tp2060
Rp2061
(I3
S'|'
p2062
NNNI33
I1
I0
tp2063
bS'https:\\/\\/vine.co\\/v\\/eVuuvI5gguh'
p2064
tp2065
Rp2066
I262
sg1
(g2
(S'S33'
p2067
I0
I1
tp2068
Rp2069
(I3
S'|'
p2070
NNNI33
I1
I0
tp2071
bS'https:\\/\\/vine.co\\/v\\/evvxLTr5pdu'
p2072
tp2073
Rp2074
I263
sg1
(g2
(S'S33'
p2075
I0
I1
tp2076
Rp2077
(I3
S'|'
p2078
NNNI33
I1
I0
tp2079
bS'https:\\/\\/vine.co\\/v\\/hYdLVKDpAFu'
p2080
tp2081
Rp2082
I264
sg1
(g2
(S'S33'
p2083
I0
I1
tp2084
Rp2085
(I3
S'|'
p2086
NNNI33
I1
I0
tp2087
bS'https:\\/\\/vine.co\\/v\\/5a2DZnnJbI9'
p2088
tp2089
Rp2090
I265
sg1
(g2
(S'S33'
p2091
I0
I1
tp2092
Rp2093
(I3
S'|'
p2094
NNNI33
I1
I0
tp2095
bS'https:\\/\\/vine.co\\/v\\/5wn7zDKU2pH'
p2096
tp2097
Rp2098
I266
sg1
(g2
(S'S33'
p2099
I0
I1
tp2100
Rp2101
(I3
S'|'
p2102
NNNI33
I1
I0
tp2103
bS'https:\\/\\/vine.co\\/v\\/OaV6r9Lvh3Y'
p2104
tp2105
Rp2106
I267
sg1
(g2
(S'S33'
p2107
I0
I1
tp2108
Rp2109
(I3
S'|'
p2110
NNNI33
I1
I0
tp2111
bS'https:\\/\\/vine.co\\/v\\/MbFQDBAFDbb'
p2112
tp2113
Rp2114
I1080
sg1
(g2
(S'S33'
p2115
I0
I1
tp2116
Rp2117
(I3
S'|'
p2118
NNNI33
I1
I0
tp2119
bS'https:\\/\\/vine.co\\/v\\/h5WIelb7pZY'
p2120
tp2121
Rp2122
I495
sg1
(g2
(S'S33'
p2123
I0
I1
tp2124
Rp2125
(I3
S'|'
p2126
NNNI33
I1
I0
tp2127
bS'https:\\/\\/vine.co\\/v\\/ebn0lpgqHvb'
p2128
tp2129
Rp2130
I270
sg1
(g2
(S'S33'
p2131
I0
I1
tp2132
Rp2133
(I3
S'|'
p2134
NNNI33
I1
I0
tp2135
bS'https:\\/\\/vine.co\\/v\\/51qnmFVO3P6'
p2136
tp2137
Rp2138
I271
sg1
(g2
(S'S33'
p2139
I0
I1
tp2140
Rp2141
(I3
S'|'
p2142
NNNI33
I1
I0
tp2143
bS'https:\\/\\/vine.co\\/v\\/htO25Ugmj9D'
p2144
tp2145
Rp2146
I272
sg1
(g2
(S'S33'
p2147
I0
I1
tp2148
Rp2149
(I3
S'|'
p2150
NNNI33
I1
I0
tp2151
bS'https:\\/\\/vine.co\\/v\\/ihTiZXEBnme'
p2152
tp2153
Rp2154
I273
sg1
(g2
(S'S33'
p2155
I0
I1
tp2156
Rp2157
(I3
S'|'
p2158
NNNI33
I1
I0
tp2159
bS'https:\\/\\/vine.co\\/v\\/OnteTTYp30q'
p2160
tp2161
Rp2162
I274
sg1
(g2
(S'S33'
p2163
I0
I1
tp2164
Rp2165
(I3
S'|'
p2166
NNNI33
I1
I0
tp2167
bS'https:\\/\\/vine.co\\/v\\/iXQAm5Lrgrh'
p2168
tp2169
Rp2170
I898
sg1
(g2
(S'S33'
p2171
I0
I1
tp2172
Rp2173
(I3
S'|'
p2174
NNNI33
I1
I0
tp2175
bS'https:\\/\\/vine.co\\/v\\/OjqeYWWpVWK'
p2176
tp2177
Rp2178
I275
sg1
(g2
(S'S33'
p2179
I0
I1
tp2180
Rp2181
(I3
S'|'
p2182
NNNI33
I1
I0
tp2183
bS'https:\\/\\/vine.co\\/v\\/h7PFPOa7rD2'
p2184
tp2185
Rp2186
I276
sg1
(g2
(S'S33'
p2187
I0
I1
tp2188
Rp2189
(I3
S'|'
p2190
NNNI33
I1
I0
tp2191
bS'https:\\/\\/vine.co\\/v\\/iBTPXl7b2qj'
p2192
tp2193
Rp2194
I277
sg1
(g2
(S'S33'
p2195
I0
I1
tp2196
Rp2197
(I3
S'|'
p2198
NNNI33
I1
I0
tp2199
bS'https:\\/\\/vine.co\\/v\\/ei2mLQwiaLe'
p2200
tp2201
Rp2202
I278
sg1
(g2
(S'S33'
p2203
I0
I1
tp2204
Rp2205
(I3
S'|'
p2206
NNNI33
I1
I0
tp2207
bS'https:\\/\\/vine.co\\/v\\/inJuFUYT6eD'
p2208
tp2209
Rp2210
I280
sg1
(g2
(S'S33'
p2211
I0
I1
tp2212
Rp2213
(I3
S'|'
p2214
NNNI33
I1
I0
tp2215
bS'https:\\/\\/vine.co\\/v\\/i7QwgFAXwUY'
p2216
tp2217
Rp2218
I281
sg1
(g2
(S'S33'
p2219
I0
I1
tp2220
Rp2221
(I3
S'|'
p2222
NNNI33
I1
I0
tp2223
bS'https:\\/\\/vine.co\\/v\\/OdUtbIaD6XU'
p2224
tp2225
Rp2226
I282
sg1
(g2
(S'S33'
p2227
I0
I1
tp2228
Rp2229
(I3
S'|'
p2230
NNNI33
I1
I0
tp2231
bS'https:\\/\\/vine.co\\/v\\/OlKAn61dbEz'
p2232
tp2233
Rp2234
I283
sg1
(g2
(S'S33'
p2235
I0
I1
tp2236
Rp2237
(I3
S'|'
p2238
NNNI33
I1
I0
tp2239
bS'https:\\/\\/vine.co\\/v\\/O2IpUL7AvUF'
p2240
tp2241
Rp2242
I284
sg1
(g2
(S'S33'
p2243
I0
I1
tp2244
Rp2245
(I3
S'|'
p2246
NNNI33
I1
I0
tp2247
bS'https:\\/\\/vine.co\\/v\\/eXbnxWqzOLZ'
p2248
tp2249
Rp2250
I906
sg1
(g2
(S'S33'
p2251
I0
I1
tp2252
Rp2253
(I3
S'|'
p2254
NNNI33
I1
I0
tp2255
bS'https:\\/\\/vine.co\\/v\\/Mlv9ul1DFlD'
p2256
tp2257
Rp2258
I286
sg1
(g2
(S'S33'
p2259
I0
I1
tp2260
Rp2261
(I3
S'|'
p2262
NNNI33
I1
I0
tp2263
bS'https:\\/\\/vine.co\\/v\\/edFj5Emjh3g'
p2264
tp2265
Rp2266
I287
sg1
(g2
(S'S33'
p2267
I0
I1
tp2268
Rp2269
(I3
S'|'
p2270
NNNI33
I1
I0
tp2271
bS'https:\\/\\/vine.co\\/v\\/e39m55w9iEj'
p2272
tp2273
Rp2274
I288
sg1
(g2
(S'S33'
p2275
I0
I1
tp2276
Rp2277
(I3
S'|'
p2278
NNNI33
I1
I0
tp2279
bS'https:\\/\\/vine.co\\/v\\/eEHg5zYbtXL'
p2280
tp2281
Rp2282
I289
sg1
(g2
(S'S33'
p2283
I0
I1
tp2284
Rp2285
(I3
S'|'
p2286
NNNI33
I1
I0
tp2287
bS'https:\\/\\/vine.co\\/v\\/eDqubzlguIt'
p2288
tp2289
Rp2290
I290
sg1
(g2
(S'S33'
p2291
I0
I1
tp2292
Rp2293
(I3
S'|'
p2294
NNNI33
I1
I0
tp2295
bS'https:\\/\\/vine.co\\/v\\/eieAUqzV11m'
p2296
tp2297
Rp2298
I291
sg1
(g2
(S'S33'
p2299
I0
I1
tp2300
Rp2301
(I3
S'|'
p2302
NNNI33
I1
I0
tp2303
bS'https:\\/\\/vine.co\\/v\\/5d6OqMzgzx7'
p2304
tp2305
Rp2306
I242
sg1
(g2
(S'S33'
p2307
I0
I1
tp2308
Rp2309
(I3
S'|'
p2310
NNNI33
I1
I0
tp2311
bS'https:\\/\\/vine.co\\/v\\/OEiD0ulBnih'
p2312
tp2313
Rp2314
I293
sg1
(g2
(S'S33'
p2315
I0
I1
tp2316
Rp2317
(I3
S'|'
p2318
NNNI33
I1
I0
tp2319
bS'https:\\/\\/vine.co\\/v\\/OPUbltF9Ptm'
p2320
tp2321
Rp2322
I61
sg1
(g2
(S'S33'
p2323
I0
I1
tp2324
Rp2325
(I3
S'|'
p2326
NNNI33
I1
I0
tp2327
bS'https:\\/\\/vine.co\\/v\\/ejuw915Da7u'
p2328
tp2329
Rp2330
I295
sg1
(g2
(S'S33'
p2331
I0
I1
tp2332
Rp2333
(I3
S'|'
p2334
NNNI33
I1
I0
tp2335
bS'https:\\/\\/vine.co\\/v\\/ilX1UMarZZD'
p2336
tp2337
Rp2338
I297
sg1
(g2
(S'S33'
p2339
I0
I1
tp2340
Rp2341
(I3
S'|'
p2342
NNNI33
I1
I0
tp2343
bS'https:\\/\\/vine.co\\/v\\/MFYKPlIYBMd'
p2344
tp2345
Rp2346
I298
sg1
(g2
(S'S33'
p2347
I0
I1
tp2348
Rp2349
(I3
S'|'
p2350
NNNI33
I1
I0
tp2351
bS'https:\\/\\/vine.co\\/v\\/iOU3TAQut33'
p2352
tp2353
Rp2354
I299
sg1
(g2
(S'S33'
p2355
I0
I1
tp2356
Rp2357
(I3
S'|'
p2358
NNNI33
I1
I0
tp2359
bS'https:\\/\\/vine.co\\/v\\/5WAu0qKHLIM'
p2360
tp2361
Rp2362
I300
sg1
(g2
(S'S33'
p2363
I0
I1
tp2364
Rp2365
(I3
S'|'
p2366
NNNI33
I1
I0
tp2367
bS'https:\\/\\/vine.co\\/v\\/OYItttuO7YD'
p2368
tp2369
Rp2370
I32
sg1
(g2
(S'S33'
p2371
I0
I1
tp2372
Rp2373
(I3
S'|'
p2374
NNNI33
I1
I0
tp2375
bS'https:\\/\\/vine.co\\/v\\/O9uhwdvX5dK'
p2376
tp2377
Rp2378
I1003
sg1
(g2
(S'S33'
p2379
I0
I1
tp2380
Rp2381
(I3
S'|'
p2382
NNNI33
I1
I0
tp2383
bS'https:\\/\\/vine.co\\/v\\/eIpe7qxU2jP'
p2384
tp2385
Rp2386
I303
sg1
(g2
(S'S33'
p2387
I0
I1
tp2388
Rp2389
(I3
S'|'
p2390
NNNI33
I1
I0
tp2391
bS'https:\\/\\/vine.co\\/v\\/OYXYd76au0E'
p2392
tp2393
Rp2394
I304
sg1
(g2
(S'S33'
p2395
I0
I1
tp2396
Rp2397
(I3
S'|'
p2398
NNNI33
I1
I0
tp2399
bS'https:\\/\\/vine.co\\/v\\/iAbI6JYw6ua'
p2400
tp2401
Rp2402
I305
sg1
(g2
(S'S33'
p2403
I0
I1
tp2404
Rp2405
(I3
S'|'
p2406
NNNI33
I1
I0
tp2407
bS'https:\\/\\/vine.co\\/v\\/56Ltn5PlU52'
p2408
tp2409
Rp2410
I103
sg1
(g2
(S'S33'
p2411
I0
I1
tp2412
Rp2413
(I3
S'|'
p2414
NNNI33
I1
I0
tp2415
bS'https:\\/\\/vine.co\\/v\\/iqYHqZFwXe0'
p2416
tp2417
Rp2418
I308
sg1
(g2
(S'S33'
p2419
I0
I1
tp2420
Rp2421
(I3
S'|'
p2422
NNNI33
I1
I0
tp2423
bS'https:\\/\\/vine.co\\/v\\/eqgpQ0U5Uph'
p2424
tp2425
Rp2426
I22
sg1
(g2
(S'S33'
p2427
I0
I1
tp2428
Rp2429
(I3
S'|'
p2430
NNNI33
I1
I0
tp2431
bS'https:\\/\\/vine.co\\/v\\/iuH9a51jueW'
p2432
tp2433
Rp2434
I310
sg1
(g2
(S'S33'
p2435
I0
I1
tp2436
Rp2437
(I3
S'|'
p2438
NNNI33
I1
I0
tp2439
bS'https:\\/\\/vine.co\\/v\\/ejv1hBDYA16'
p2440
tp2441
Rp2442
I312
sg1
(g2
(S'S33'
p2443
I0
I1
tp2444
Rp2445
(I3
S'|'
p2446
NNNI33
I1
I0
tp2447
bS'https:\\/\\/vine.co\\/v\\/iBb2x00UVlv'
p2448
tp2449
Rp2450
I313
sg1
(g2
(S'S33'
p2451
I0
I1
tp2452
Rp2453
(I3
S'|'
p2454
NNNI33
I1
I0
tp2455
bS'https:\\/\\/vine.co\\/v\\/irUYTvmYF95'
p2456
tp2457
Rp2458
I314
sg1
(g2
(S'S33'
p2459
I0
I1
tp2460
Rp2461
(I3
S'|'
p2462
NNNI33
I1
I0
tp2463
bS'https:\\/\\/vine.co\\/v\\/bXJAmFLBaat'
p2464
tp2465
Rp2466
I315
sg1
(g2
(S'S33'
p2467
I0
I1
tp2468
Rp2469
(I3
S'|'
p2470
NNNI33
I1
I0
tp2471
bS'https:\\/\\/vine.co\\/v\\/OEZmmWmel2t'
p2472
tp2473
Rp2474
I197
sg1
(g2
(S'S33'
p2475
I0
I1
tp2476
Rp2477
(I3
S'|'
p2478
NNNI33
I1
I0
tp2479
bS'https:\\/\\/vine.co\\/v\\/hMJZ5i9LuDv'
p2480
tp2481
Rp2482
I674
sg1
(g2
(S'S33'
p2483
I0
I1
tp2484
Rp2485
(I3
S'|'
p2486
NNNI33
I1
I0
tp2487
bS'https:\\/\\/vine.co\\/v\\/hv25wgbueAe'
p2488
tp2489
Rp2490
I987
sg1
(g2
(S'S33'
p2491
I0
I1
tp2492
Rp2493
(I3
S'|'
p2494
NNNI33
I1
I0
tp2495
bS'https:\\/\\/vine.co\\/v\\/OQBdVv1pvax'
p2496
tp2497
Rp2498
I320
sg1
(g2
(S'S33'
p2499
I0
I1
tp2500
Rp2501
(I3
S'|'
p2502
NNNI33
I1
I0
tp2503
bS'https:\\/\\/vine.co\\/v\\/eHblVODZ5Oj'
p2504
tp2505
Rp2506
I1131
sg1
(g2
(S'S33'
p2507
I0
I1
tp2508
Rp2509
(I3
S'|'
p2510
NNNI33
I1
I0
tp2511
bS'https:\\/\\/vine.co\\/v\\/hZ1Vg5Fj0r7'
p2512
tp2513
Rp2514
I321
sg1
(g2
(S'S33'
p2515
I0
I1
tp2516
Rp2517
(I3
S'|'
p2518
NNNI33
I1
I0
tp2519
bS'https:\\/\\/vine.co\\/v\\/5J9B3mz0ze5'
p2520
tp2521
Rp2522
I615
sg1
(g2
(S'S33'
p2523
I0
I1
tp2524
Rp2525
(I3
S'|'
p2526
NNNI33
I1
I0
tp2527
bS'https:\\/\\/vine.co\\/v\\/MJ09IKuAKlF'
p2528
tp2529
Rp2530
I323
sg1
(g2
(S'S33'
p2531
I0
I1
tp2532
Rp2533
(I3
S'|'
p2534
NNNI33
I1
I0
tp2535
bS'https:\\/\\/vine.co\\/v\\/iPEMitrVYz5'
p2536
tp2537
Rp2538
I324
sg1
(g2
(S'S33'
p2539
I0
I1
tp2540
Rp2541
(I3
S'|'
p2542
NNNI33
I1
I0
tp2543
bS'https:\\/\\/vine.co\\/v\\/5iudqDdrnWl'
p2544
tp2545
Rp2546
I616
sg1
(g2
(S'S33'
p2547
I0
I1
tp2548
Rp2549
(I3
S'|'
p2550
NNNI33
I1
I0
tp2551
bS'https:\\/\\/vine.co\\/v\\/MVmpZ7HjrhY'
p2552
tp2553
Rp2554
I326
sg1
(g2
(S'S33'
p2555
I0
I1
tp2556
Rp2557
(I3
S'|'
p2558
NNNI33
I1
I0
tp2559
bS'https:\\/\\/vine.co\\/v\\/OP3zzVqBi0V'
p2560
tp2561
Rp2562
I428
sg1
(g2
(S'S33'
p2563
I0
I1
tp2564
Rp2565
(I3
S'|'
p2566
NNNI33
I1
I0
tp2567
bS'https:\\/\\/vine.co\\/v\\/OBMvaUi93rE'
p2568
tp2569
Rp2570
I328
sg1
(g2
(S'S33'
p2571
I0
I1
tp2572
Rp2573
(I3
S'|'
p2574
NNNI33
I1
I0
tp2575
bS'https:\\/\\/vine.co\\/v\\/55DKVV3AIar'
p2576
tp2577
Rp2578
I329
sg1
(g2
(S'S33'
p2579
I0
I1
tp2580
Rp2581
(I3
S'|'
p2582
NNNI33
I1
I0
tp2583
bS'https:\\/\\/vine.co\\/v\\/5hVLFtuMw3h'
p2584
tp2585
Rp2586
I116
sg1
(g2
(S'S33'
p2587
I0
I1
tp2588
Rp2589
(I3
S'|'
p2590
NNNI33
I1
I0
tp2591
bS'https:\\/\\/vine.co\\/v\\/O5K5eA2Vzwj'
p2592
tp2593
Rp2594
I429
sg1
(g2
(S'S33'
p2595
I0
I1
tp2596
Rp2597
(I3
S'|'
p2598
NNNI33
I1
I0
tp2599
bS'https:\\/\\/vine.co\\/v\\/erxaWjU1IWW'
p2600
tp2601
Rp2602
I332
sg1
(g2
(S'S33'
p2603
I0
I1
tp2604
Rp2605
(I3
S'|'
p2606
NNNI33
I1
I0
tp2607
bS'https:\\/\\/vine.co\\/v\\/eEMUzQFTJ30'
p2608
tp2609
Rp2610
I333
sg1
(g2
(S'S33'
p2611
I0
I1
tp2612
Rp2613
(I3
S'|'
p2614
NNNI33
I1
I0
tp2615
bS'https:\\/\\/vine.co\\/v\\/MD1eEQEjM9u'
p2616
tp2617
Rp2618
I334
sg1
(g2
(S'S33'
p2619
I0
I1
tp2620
Rp2621
(I3
S'|'
p2622
NNNI33
I1
I0
tp2623
bS'https:\\/\\/vine.co\\/v\\/M5t9ibmxQv5'
p2624
tp2625
Rp2626
I335
sg1
(g2
(S'S33'
p2627
I0
I1
tp2628
Rp2629
(I3
S'|'
p2630
NNNI33
I1
I0
tp2631
bS'https:\\/\\/vine.co\\/v\\/ezJDqFEBDQF'
p2632
tp2633
Rp2634
I336
sg1
(g2
(S'S33'
p2635
I0
I1
tp2636
Rp2637
(I3
S'|'
p2638
NNNI33
I1
I0
tp2639
bS'https:\\/\\/vine.co\\/v\\/eqZBdXubj7h'
p2640
tp2641
Rp2642
I62
sg1
(g2
(S'S33'
p2643
I0
I1
tp2644
Rp2645
(I3
S'|'
p2646
NNNI33
I1
I0
tp2647
bS'https:\\/\\/vine.co\\/v\\/iEpKBWtnPHK'
p2648
tp2649
Rp2650
I1011
sg1
(g2
(S'S33'
p2651
I0
I1
tp2652
Rp2653
(I3
S'|'
p2654
NNNI33
I1
I0
tp2655
bS'https:\\/\\/vine.co\\/v\\/eQ6rbF3JvHI'
p2656
tp2657
Rp2658
I1129
sg1
(g2
(S'S33'
p2659
I0
I1
tp2660
Rp2661
(I3
S'|'
p2662
NNNI33
I1
I0
tp2663
bS'https:\\/\\/vine.co\\/v\\/itwHXpqidnA'
p2664
tp2665
Rp2666
I1053
sg1
(g2
(S'S33'
p2667
I0
I1
tp2668
Rp2669
(I3
S'|'
p2670
NNNI33
I1
I0
tp2671
bS'https:\\/\\/vine.co\\/v\\/5ZYj3BTwPwF'
p2672
tp2673
Rp2674
I340
sg1
(g2
(S'S33'
p2675
I0
I1
tp2676
Rp2677
(I3
S'|'
p2678
NNNI33
I1
I0
tp2679
bS'https:\\/\\/vine.co\\/v\\/eEQQaPFbgOY'
p2680
tp2681
Rp2682
I342
sg1
(g2
(S'S33'
p2683
I0
I1
tp2684
Rp2685
(I3
S'|'
p2686
NNNI33
I1
I0
tp2687
bS'https:\\/\\/vine.co\\/v\\/hKIPPwU09le'
p2688
tp2689
Rp2690
I344
sg1
(g2
(S'S33'
p2691
I0
I1
tp2692
Rp2693
(I3
S'|'
p2694
NNNI33
I1
I0
tp2695
bS'https:\\/\\/vine.co\\/v\\/ixmbi5xFddx'
p2696
tp2697
Rp2698
I345
sg1
(g2
(S'S33'
p2699
I0
I1
tp2700
Rp2701
(I3
S'|'
p2702
NNNI33
I1
I0
tp2703
bS'https:\\/\\/vine.co\\/v\\/M5Fa1lvQYJ3'
p2704
tp2705
Rp2706
I318
sg1
(g2
(S'S33'
p2707
I0
I1
tp2708
Rp2709
(I3
S'|'
p2710
NNNI33
I1
I0
tp2711
bS'https:\\/\\/vine.co\\/v\\/bYAz2baH5Bd'
p2712
tp2713
Rp2714
I347
sg1
(g2
(S'S33'
p2715
I0
I1
tp2716
Rp2717
(I3
S'|'
p2718
NNNI33
I1
I0
tp2719
bS'https:\\/\\/vine.co\\/v\\/i3pQ70vK3iv'
p2720
tp2721
Rp2722
I348
sg1
(g2
(S'S33'
p2723
I0
I1
tp2724
Rp2725
(I3
S'|'
p2726
NNNI33
I1
I0
tp2727
bS'https:\\/\\/vine.co\\/v\\/hYdvIAaOY1d'
p2728
tp2729
Rp2730
I826
sg1
(g2
(S'S33'
p2731
I0
I1
tp2732
Rp2733
(I3
S'|'
p2734
NNNI33
I1
I0
tp2735
bS'https:\\/\\/vine.co\\/v\\/iIXF6d9Kvnv'
p2736
tp2737
Rp2738
I349
sg1
(g2
(S'S33'
p2739
I0
I1
tp2740
Rp2741
(I3
S'|'
p2742
NNNI33
I1
I0
tp2743
bS'https:\\/\\/vine.co\\/v\\/eOHDj2giXwg'
p2744
tp2745
Rp2746
I350
sg1
(g2
(S'S33'
p2747
I0
I1
tp2748
Rp2749
(I3
S'|'
p2750
NNNI33
I1
I0
tp2751
bS'https:\\/\\/vine.co\\/v\\/eKW5BIFrh9U'
p2752
tp2753
Rp2754
I351
sg1
(g2
(S'S33'
p2755
I0
I1
tp2756
Rp2757
(I3
S'|'
p2758
NNNI33
I1
I0
tp2759
bS'https:\\/\\/vine.co\\/v\\/5DO67KjEU7M'
p2760
tp2761
Rp2762
I352
sg1
(g2
(S'S33'
p2763
I0
I1
tp2764
Rp2765
(I3
S'|'
p2766
NNNI33
I1
I0
tp2767
bS'https:\\/\\/vine.co\\/v\\/MMz2hJOHIUt'
p2768
tp2769
Rp2770
I353
sg1
(g2
(S'S33'
p2771
I0
I1
tp2772
Rp2773
(I3
S'|'
p2774
NNNI33
I1
I0
tp2775
bS'https:\\/\\/vine.co\\/v\\/iMnmDH6PEvv'
p2776
tp2777
Rp2778
I354
sg1
(g2
(S'S33'
p2779
I0
I1
tp2780
Rp2781
(I3
S'|'
p2782
NNNI33
I1
I0
tp2783
bS'https:\\/\\/vine.co\\/v\\/5ePOxlMqMbK'
p2784
tp2785
Rp2786
I559
sg1
(g2
(S'S33'
p2787
I0
I1
tp2788
Rp2789
(I3
S'|'
p2790
NNNI33
I1
I0
tp2791
bS'https:\\/\\/vine.co\\/v\\/i0qapF0q5nJ'
p2792
tp2793
Rp2794
I1016
sg1
(g2
(S'S33'
p2795
I0
I1
tp2796
Rp2797
(I3
S'|'
p2798
NNNI33
I1
I0
tp2799
bS'https:\\/\\/vine.co\\/v\\/ixbtLWwuXEw'
p2800
tp2801
Rp2802
I357
sg1
(g2
(S'S33'
p2803
I0
I1
tp2804
Rp2805
(I3
S'|'
p2806
NNNI33
I1
I0
tp2807
bS'https:\\/\\/vine.co\\/v\\/hOWdmXVevWJ'
p2808
tp2809
Rp2810
I359
sg1
(g2
(S'S33'
p2811
I0
I1
tp2812
Rp2813
(I3
S'|'
p2814
NNNI33
I1
I0
tp2815
bS'https:\\/\\/vine.co\\/v\\/e2F0h0QPijM'
p2816
tp2817
Rp2818
I360
sg1
(g2
(S'S33'
p2819
I0
I1
tp2820
Rp2821
(I3
S'|'
p2822
NNNI33
I1
I0
tp2823
bS'https:\\/\\/vine.co\\/v\\/e3Jbl3nhIUn'
p2824
tp2825
Rp2826
I361
sg1
(g2
(S'S33'
p2827
I0
I1
tp2828
Rp2829
(I3
S'|'
p2830
NNNI33
I1
I0
tp2831
bS'https:\\/\\/vine.co\\/v\\/epFD3Lz9O5q'
p2832
tp2833
Rp2834
I362
sg1
(g2
(S'S33'
p2835
I0
I1
tp2836
Rp2837
(I3
S'|'
p2838
NNNI33
I1
I0
tp2839
bS'https:\\/\\/vine.co\\/v\\/5nzYBpl0TY2'
p2840
tp2841
Rp2842
I363
sg1
(g2
(S'S33'
p2843
I0
I1
tp2844
Rp2845
(I3
S'|'
p2846
NNNI33
I1
I0
tp2847
bS'https:\\/\\/vine.co\\/v\\/iqMjlxULzbn'
p2848
tp2849
Rp2850
I364
sg1
(g2
(S'S33'
p2851
I0
I1
tp2852
Rp2853
(I3
S'|'
p2854
NNNI33
I1
I0
tp2855
bS'https:\\/\\/vine.co\\/v\\/5J6qrrbt73i'
p2856
tp2857
Rp2858
I365
sg1
(g2
(S'S33'
p2859
I0
I1
tp2860
Rp2861
(I3
S'|'
p2862
NNNI33
I1
I0
tp2863
bS'https:\\/\\/vine.co\\/v\\/i6iinY9rg7q'
p2864
tp2865
Rp2866
I366
sg1
(g2
(S'S33'
p2867
I0
I1
tp2868
Rp2869
(I3
S'|'
p2870
NNNI33
I1
I0
tp2871
bS'https:\\/\\/vine.co\\/v\\/5gL7ELgniLe'
p2872
tp2873
Rp2874
I367
sg1
(g2
(S'S33'
p2875
I0
I1
tp2876
Rp2877
(I3
S'|'
p2878
NNNI33
I1
I0
tp2879
bS'https:\\/\\/vine.co\\/v\\/iU3PbDeHeDq'
p2880
tp2881
Rp2882
I368
sg1
(g2
(S'S33'
p2883
I0
I1
tp2884
Rp2885
(I3
S'|'
p2886
NNNI33
I1
I0
tp2887
bS'https:\\/\\/vine.co\\/v\\/MFWZahKIQAj'
p2888
tp2889
Rp2890
I369
sg1
(g2
(S'S33'
p2891
I0
I1
tp2892
Rp2893
(I3
S'|'
p2894
NNNI33
I1
I0
tp2895
bS'https:\\/\\/vine.co\\/v\\/ib25tXFXXDD'
p2896
tp2897
Rp2898
I370
sg1
(g2
(S'S33'
p2899
I0
I1
tp2900
Rp2901
(I3
S'|'
p2902
NNNI33
I1
I0
tp2903
bS'https:\\/\\/vine.co\\/v\\/5u1dDA00uHw'
p2904
tp2905
Rp2906
I434
sg1
(g2
(S'S33'
p2907
I0
I1
tp2908
Rp2909
(I3
S'|'
p2910
NNNI33
I1
I0
tp2911
bS'https:\\/\\/vine.co\\/v\\/imXZdDvY37b'
p2912
tp2913
Rp2914
I607
sg1
(g2
(S'S33'
p2915
I0
I1
tp2916
Rp2917
(I3
S'|'
p2918
NNNI33
I1
I0
tp2919
bS'https:\\/\\/vine.co\\/v\\/5rBOpWAzZAB'
p2920
tp2921
Rp2922
I217
sg1
(g2
(S'S33'
p2923
I0
I1
tp2924
Rp2925
(I3
S'|'
p2926
NNNI33
I1
I0
tp2927
bS'https:\\/\\/vine.co\\/v\\/MK9aIjIpU3j'
p2928
tp2929
Rp2930
I373
sg1
(g2
(S'S33'
p2931
I0
I1
tp2932
Rp2933
(I3
S'|'
p2934
NNNI33
I1
I0
tp2935
bS'https:\\/\\/vine.co\\/v\\/OK5TtYVmZ7b'
p2936
tp2937
Rp2938
I374
sg1
(g2
(S'S33'
p2939
I0
I1
tp2940
Rp2941
(I3
S'|'
p2942
NNNI33
I1
I0
tp2943
bS'https:\\/\\/vine.co\\/v\\/i9DYFmxH6pd'
p2944
tp2945
Rp2946
I375
sg1
(g2
(S'S33'
p2947
I0
I1
tp2948
Rp2949
(I3
S'|'
p2950
NNNI33
I1
I0
tp2951
bS'https:\\/\\/vine.co\\/v\\/OY3Z5DtPHgA'
p2952
tp2953
Rp2954
I193
sg1
(g2
(S'S33'
p2955
I0
I1
tp2956
Rp2957
(I3
S'|'
p2958
NNNI33
I1
I0
tp2959
bS'https:\\/\\/vine.co\\/v\\/iaz2OhaU3BW'
p2960
tp2961
Rp2962
I377
sg1
(g2
(S'S33'
p2963
I0
I1
tp2964
Rp2965
(I3
S'|'
p2966
NNNI33
I1
I0
tp2967
bS'https:\\/\\/vine.co\\/v\\/O7wMYJwQ7mg'
p2968
tp2969
Rp2970
I378
sg1
(g2
(S'S33'
p2971
I0
I1
tp2972
Rp2973
(I3
S'|'
p2974
NNNI33
I1
I0
tp2975
bS'https:\\/\\/vine.co\\/v\\/ejQnahMKvTp'
p2976
tp2977
Rp2978
I379
sg1
(g2
(S'S33'
p2979
I0
I1
tp2980
Rp2981
(I3
S'|'
p2982
NNNI33
I1
I0
tp2983
bS'https:\\/\\/vine.co\\/v\\/e2Ox2wKd07I'
p2984
tp2985
Rp2986
I380
sg1
(g2
(S'S33'
p2987
I0
I1
tp2988
Rp2989
(I3
S'|'
p2990
NNNI33
I1
I0
tp2991
bS'https:\\/\\/vine.co\\/v\\/ewuJmb3W9TF'
p2992
tp2993
Rp2994
I381
sg1
(g2
(S'S33'
p2995
I0
I1
tp2996
Rp2997
(I3
S'|'
p2998
NNNI33
I1
I0
tp2999
bS'https:\\/\\/vine.co\\/v\\/iH9x0rXeI3B'
p3000
tp3001
Rp3002
I382
sg1
(g2
(S'S33'
p3003
I0
I1
tp3004
Rp3005
(I3
S'|'
p3006
NNNI33
I1
I0
tp3007
bS'https:\\/\\/vine.co\\/v\\/errvEME50mO'
p3008
tp3009
Rp3010
I1126
sg1
(g2
(S'S33'
p3011
I0
I1
tp3012
Rp3013
(I3
S'|'
p3014
NNNI33
I1
I0
tp3015
bS'https:\\/\\/vine.co\\/v\\/eIF0FEVaj9L'
p3016
tp3017
Rp3018
I384
sg1
(g2
(S'S33'
p3019
I0
I1
tp3020
Rp3021
(I3
S'|'
p3022
NNNI33
I1
I0
tp3023
bS'https:\\/\\/vine.co\\/v\\/eY07XOUPVxW'
p3024
tp3025
Rp3026
I385
sg1
(g2
(S'S33'
p3027
I0
I1
tp3028
Rp3029
(I3
S'|'
p3030
NNNI33
I1
I0
tp3031
bS'https:\\/\\/vine.co\\/v\\/b2UKaVmb2Vd'
p3032
tp3033
Rp3034
I386
sg1
(g2
(S'S33'
p3035
I0
I1
tp3036
Rp3037
(I3
S'|'
p3038
NNNI33
I1
I0
tp3039
bS'https:\\/\\/vine.co\\/v\\/5zVx2djFDTr'
p3040
tp3041
Rp3042
I387
sg1
(g2
(S'S33'
p3043
I0
I1
tp3044
Rp3045
(I3
S'|'
p3046
NNNI33
I1
I0
tp3047
bS'https:\\/\\/vine.co\\/v\\/eP9LQdQaj6e'
p3048
tp3049
Rp3050
I960
sg1
(g2
(S'S33'
p3051
I0
I1
tp3052
Rp3053
(I3
S'|'
p3054
NNNI33
I1
I0
tp3055
bS'https:\\/\\/vine.co\\/v\\/MbaXzKUYpIW'
p3056
tp3057
Rp3058
I389
sg1
(g2
(S'S33'
p3059
I0
I1
tp3060
Rp3061
(I3
S'|'
p3062
NNNI33
I1
I0
tp3063
bS'https:\\/\\/vine.co\\/v\\/ejYObOEwHDT'
p3064
tp3065
Rp3066
I390
sg1
(g2
(S'S33'
p3067
I0
I1
tp3068
Rp3069
(I3
S'|'
p3070
NNNI33
I1
I0
tp3071
bS'https:\\/\\/vine.co\\/v\\/OzQaIO0IOiu'
p3072
tp3073
Rp3074
I391
sg1
(g2
(S'S33'
p3075
I0
I1
tp3076
Rp3077
(I3
S'|'
p3078
NNNI33
I1
I0
tp3079
bS'https:\\/\\/vine.co\\/v\\/eTPwqKDtZAj'
p3080
tp3081
Rp3082
I392
sg1
(g2
(S'S33'
p3083
I0
I1
tp3084
Rp3085
(I3
S'|'
p3086
NNNI33
I1
I0
tp3087
bS'https:\\/\\/vine.co\\/v\\/OETAhXO7t2V'
p3088
tp3089
Rp3090
I120
sg1
(g2
(S'S33'
p3091
I0
I1
tp3092
Rp3093
(I3
S'|'
p3094
NNNI33
I1
I0
tp3095
bS'https:\\/\\/vine.co\\/v\\/OK7x6JWIgzg'
p3096
tp3097
Rp3098
I127
sg1
(g2
(S'S33'
p3099
I0
I1
tp3100
Rp3101
(I3
S'|'
p3102
NNNI33
I1
I0
tp3103
bS'https:\\/\\/vine.co\\/v\\/eYBbTpLquPd'
p3104
tp3105
Rp3106
I395
sg1
(g2
(S'S33'
p3107
I0
I1
tp3108
Rp3109
(I3
S'|'
p3110
NNNI33
I1
I0
tp3111
bS'https:\\/\\/vine.co\\/v\\/eE7JJIejOX0'
p3112
tp3113
Rp3114
I396
sg1
(g2
(S'S33'
p3115
I0
I1
tp3116
Rp3117
(I3
S'|'
p3118
NNNI33
I1
I0
tp3119
bS'https:\\/\\/vine.co\\/v\\/b3FLhLeXz0Q'
p3120
tp3121
Rp3122
I141
sg1
(g2
(S'S33'
p3123
I0
I1
tp3124
Rp3125
(I3
S'|'
p3126
NNNI33
I1
I0
tp3127
bS'https:\\/\\/vine.co\\/v\\/OBWuEx9PjHn'
p3128
tp3129
Rp3130
I947
sg1
(g2
(S'S33'
p3131
I0
I1
tp3132
Rp3133
(I3
S'|'
p3134
NNNI33
I1
I0
tp3135
bS'https:\\/\\/vine.co\\/v\\/iY6F5WghhOr'
p3136
tp3137
Rp3138
I398
sg1
(g2
(S'S33'
p3139
I0
I1
tp3140
Rp3141
(I3
S'|'
p3142
NNNI33
I1
I0
tp3143
bS'https:\\/\\/vine.co\\/v\\/eUw0hJqMn9P'
p3144
tp3145
Rp3146
I188
sg1
(g2
(S'S33'
p3147
I0
I1
tp3148
Rp3149
(I3
S'|'
p3150
NNNI33
I1
I0
tp3151
bS'https:\\/\\/vine.co\\/v\\/OlT6mQ2HpLD'
p3152
tp3153
Rp3154
I400
sg1
(g2
(S'S33'
p3155
I0
I1
tp3156
Rp3157
(I3
S'|'
p3158
NNNI33
I1
I0
tp3159
bS'https:\\/\\/vine.co\\/v\\/OjTAY2dKmqj'
p3160
tp3161
Rp3162
I401
sg1
(g2
(S'S33'
p3163
I0
I1
tp3164
Rp3165
(I3
S'|'
p3166
NNNI33
I1
I0
tp3167
bS'https:\\/\\/vine.co\\/v\\/bQ7qlt6dTXB'
p3168
tp3169
Rp3170
I402
sg1
(g2
(S'S33'
p3171
I0
I1
tp3172
Rp3173
(I3
S'|'
p3174
NNNI33
I1
I0
tp3175
bS'https:\\/\\/vine.co\\/v\\/OJEujOYtalr'
p3176
tp3177
Rp3178
I1085
sg1
(g2
(S'S33'
p3179
I0
I1
tp3180
Rp3181
(I3
S'|'
p3182
NNNI33
I1
I0
tp3183
bS'https:\\/\\/vine.co\\/v\\/OEZ6mg32MQt'
p3184
tp3185
Rp3186
I404
sg1
(g2
(S'S33'
p3187
I0
I1
tp3188
Rp3189
(I3
S'|'
p3190
NNNI33
I1
I0
tp3191
bS'https:\\/\\/vine.co\\/v\\/OTu1HEMW7MZ'
p3192
tp3193
Rp3194
I210
sg1
(g2
(S'S33'
p3195
I0
I1
tp3196
Rp3197
(I3
S'|'
p3198
NNNI33
I1
I0
tp3199
bS'https:\\/\\/vine.co\\/v\\/h3L7gbt2xZX'
p3200
tp3201
Rp3202
I215
sg1
(g2
(S'S33'
p3203
I0
I1
tp3204
Rp3205
(I3
S'|'
p3206
NNNI33
I1
I0
tp3207
bS'https:\\/\\/vine.co\\/v\\/iFA2TupJhYt'
p3208
tp3209
Rp3210
I219
sg1
(g2
(S'S33'
p3211
I0
I1
tp3212
Rp3213
(I3
S'|'
p3214
NNNI33
I1
I0
tp3215
bS'https:\\/\\/vine.co\\/v\\/MXH3LnW6Zzh'
p3216
tp3217
Rp3218
I408
sg1
(g2
(S'S33'
p3219
I0
I1
tp3220
Rp3221
(I3
S'|'
p3222
NNNI33
I1
I0
tp3223
bS'https:\\/\\/vine.co\\/v\\/5epxYYaWZL6'
p3224
tp3225
Rp3226
I224
sg1
(g2
(S'S33'
p3227
I0
I1
tp3228
Rp3229
(I3
S'|'
p3230
NNNI33
I1
I0
tp3231
bS'https:\\/\\/vine.co\\/v\\/iILKu3TppWw'
p3232
tp3233
Rp3234
I410
sg1
(g2
(S'S33'
p3235
I0
I1
tp3236
Rp3237
(I3
S'|'
p3238
NNNI33
I1
I0
tp3239
bS'https:\\/\\/vine.co\\/v\\/ijxT1K3Vrn9'
p3240
tp3241
Rp3242
I246
sg1
(g2
(S'S33'
p3243
I0
I1
tp3244
Rp3245
(I3
S'|'
p3246
NNNI33
I1
I0
tp3247
bS'https:\\/\\/vine.co\\/v\\/ewJP7Mh0A1V'
p3248
tp3249
Rp3250
I414
sg1
(g2
(S'S33'
p3251
I0
I1
tp3252
Rp3253
(I3
S'|'
p3254
NNNI33
I1
I0
tp3255
bS'https:\\/\\/vine.co\\/v\\/iej3O2MgmWD'
p3256
tp3257
Rp3258
I415
sg1
(g2
(S'S33'
p3259
I0
I1
tp3260
Rp3261
(I3
S'|'
p3262
NNNI33
I1
I0
tp3263
bS'https:\\/\\/vine.co\\/v\\/OvBFObqzuXw'
p3264
tp3265
Rp3266
I416
sg1
(g2
(S'S33'
p3267
I0
I1
tp3268
Rp3269
(I3
S'|'
p3270
NNNI33
I1
I0
tp3271
bS'https:\\/\\/vine.co\\/v\\/iEPEHQ7Xzbw'
p3272
tp3273
Rp3274
I417
sg1
(g2
(S'S33'
p3275
I0
I1
tp3276
Rp3277
(I3
S'|'
p3278
NNNI33
I1
I0
tp3279
bS'https:\\/\\/vine.co\\/v\\/eq5DLlbpWh5'
p3280
tp3281
Rp3282
I418
sg1
(g2
(S'S33'
p3283
I0
I1
tp3284
Rp3285
(I3
S'|'
p3286
NNNI33
I1
I0
tp3287
bS'https:\\/\\/vine.co\\/v\\/iJUapX0AMIJ'
p3288
tp3289
Rp3290
I951
sg1
(g2
(S'S33'
p3291
I0
I1
tp3292
Rp3293
(I3
S'|'
p3294
NNNI33
I1
I0
tp3295
bS'https:\\/\\/vine.co\\/v\\/heaOxhb3w5p'
p3296
tp3297
Rp3298
I419
sg1
(g2
(S'S33'
p3299
I0
I1
tp3300
Rp3301
(I3
S'|'
p3302
NNNI33
I1
I0
tp3303
bS'https:\\/\\/vine.co\\/v\\/bJqjVjdqMQ7'
p3304
tp3305
Rp3306
I420
sg1
(g2
(S'S33'
p3307
I0
I1
tp3308
Rp3309
(I3
S'|'
p3310
NNNI33
I1
I0
tp3311
bS'https:\\/\\/vine.co\\/v\\/hEzAUeOH6FH'
p3312
tp3313
Rp3314
I421
sg1
(g2
(S'S33'
p3315
I0
I1
tp3316
Rp3317
(I3
S'|'
p3318
NNNI33
I1
I0
tp3319
bS'https:\\/\\/vine.co\\/v\\/endnFxnxXlu'
p3320
tp3321
Rp3322
I422
sg1
(g2
(S'S33'
p3323
I0
I1
tp3324
Rp3325
(I3
S'|'
p3326
NNNI33
I1
I0
tp3327
bS'https:\\/\\/vine.co\\/v\\/evEtUiJhMmq'
p3328
tp3329
Rp3330
I423
sg1
(g2
(S'S33'
p3331
I0
I1
tp3332
Rp3333
(I3
S'|'
p3334
NNNI33
I1
I0
tp3335
bS'https:\\/\\/vine.co\\/v\\/ew96z5bH2YQ'
p3336
tp3337
Rp3338
I424
sg1
(g2
(S'S33'
p3339
I0
I1
tp3340
Rp3341
(I3
S'|'
p3342
NNNI33
I1
I0
tp3343
bS'https:\\/\\/vine.co\\/v\\/iBlaKB37A3b'
p3344
tp3345
Rp3346
I1006
sg1
(g2
(S'S33'
p3347
I0
I1
tp3348
Rp3349
(I3
S'|'
p3350
NNNI33
I1
I0
tp3351
bS'https:\\/\\/vine.co\\/v\\/OUI2KlXBwAu'
p3352
tp3353
Rp3354
I425
sg1
(g2
(S'S33'
p3355
I0
I1
tp3356
Rp3357
(I3
S'|'
p3358
NNNI33
I1
I0
tp3359
bS'https:\\/\\/vine.co\\/v\\/M9LVKzQz9V1'
p3360
tp3361
Rp3362
I426
sg1
(g2
(S'S33'
p3363
I0
I1
tp3364
Rp3365
(I3
S'|'
p3366
NNNI33
I1
I0
tp3367
bS'https:\\/\\/vine.co\\/v\\/M5MrqDaJT20'
p3368
tp3369
Rp3370
I427
sg1
(g2
(S'S33'
p3371
I0
I1
tp3372
Rp3373
(I3
S'|'
p3374
NNNI33
I1
I0
tp3375
bS'https:\\/\\/vine.co\\/v\\/huq9n7jOnWl'
p3376
tp3377
Rp3378
I327
sg1
(g2
(S'S33'
p3379
I0
I1
tp3380
Rp3381
(I3
S'|'
p3382
NNNI33
I1
I0
tp3383
bS'https:\\/\\/vine.co\\/v\\/OrLjaBdPHt3'
p3384
tp3385
Rp3386
I331
sg1
(g2
(S'S33'
p3387
I0
I1
tp3388
Rp3389
(I3
S'|'
p3390
NNNI33
I1
I0
tp3391
bS'https:\\/\\/vine.co\\/v\\/5irjBO201xJ'
p3392
tp3393
Rp3394
I430
sg1
(g2
(S'S33'
p3395
I0
I1
tp3396
Rp3397
(I3
S'|'
p3398
NNNI33
I1
I0
tp3399
bS'https:\\/\\/vine.co\\/v\\/ehK25IUKmbr'
p3400
tp3401
Rp3402
I431
sg1
(g2
(S'S33'
p3403
I0
I1
tp3404
Rp3405
(I3
S'|'
p3406
NNNI33
I1
I0
tp3407
bS'https:\\/\\/vine.co\\/v\\/eAEjZ333Vi1'
p3408
tp3409
Rp3410
I432
sg1
(g2
(S'S33'
p3411
I0
I1
tp3412
Rp3413
(I3
S'|'
p3414
NNNI33
I1
I0
tp3415
bS'https:\\/\\/vine.co\\/v\\/OPMUexVnnrY'
p3416
tp3417
Rp3418
I433
sg1
(g2
(S'S33'
p3419
I0
I1
tp3420
Rp3421
(I3
S'|'
p3422
NNNI33
I1
I0
tp3423
bS'https:\\/\\/vine.co\\/v\\/ig3g3mnh3aV'
p3424
tp3425
Rp3426
I371
sg1
(g2
(S'S33'
p3427
I0
I1
tp3428
Rp3429
(I3
S'|'
p3430
NNNI33
I1
I0
tp3431
bS'https:\\/\\/vine.co\\/v\\/ODuLhUeDmlB'
p3432
tp3433
Rp3434
I435
sg1
(g2
(S'S33'
p3435
I0
I1
tp3436
Rp3437
(I3
S'|'
p3438
NNNI33
I1
I0
tp3439
bS'https:\\/\\/vine.co\\/v\\/inKJAKmJD3h'
p3440
tp3441
Rp3442
I436
sg1
(g2
(S'S33'
p3443
I0
I1
tp3444
Rp3445
(I3
S'|'
p3446
NNNI33
I1
I0
tp3447
bS'https:\\/\\/vine.co\\/v\\/O2bqlMVvp0u'
p3448
tp3449
Rp3450
I438
sg1
(g2
(S'S33'
p3451
I0
I1
tp3452
Rp3453
(I3
S'|'
p3454
NNNI33
I1
I0
tp3455
bS'https:\\/\\/vine.co\\/v\\/eId3WeuIBV6'
p3456
tp3457
Rp3458
I439
sg1
(g2
(S'S33'
p3459
I0
I1
tp3460
Rp3461
(I3
S'|'
p3462
NNNI33
I1
I0
tp3463
bS'https:\\/\\/vine.co\\/v\\/5HPtEtlQZ1J'
p3464
tp3465
Rp3466
I440
sg1
(g2
(S'S33'
p3467
I0
I1
tp3468
Rp3469
(I3
S'|'
p3470
NNNI33
I1
I0
tp3471
bS'https:\\/\\/vine.co\\/v\\/eQ21ThVqt50'
p3472
tp3473
Rp3474
I441
sg1
(g2
(S'S33'
p3475
I0
I1
tp3476
Rp3477
(I3
S'|'
p3478
NNNI33
I1
I0
tp3479
bS'https:\\/\\/vine.co\\/v\\/eEAzawU3Di3'
p3480
tp3481
Rp3482
I755
sg1
(g2
(S'S33'
p3483
I0
I1
tp3484
Rp3485
(I3
S'|'
p3486
NNNI33
I1
I0
tp3487
bS'https:\\/\\/vine.co\\/v\\/heeAI7VMQ6T'
p3488
tp3489
Rp3490
I931
sg1
(g2
(S'S33'
p3491
I0
I1
tp3492
Rp3493
(I3
S'|'
p3494
NNNI33
I1
I0
tp3495
bS'https:\\/\\/vine.co\\/v\\/ilhgqUhB9QI'
p3496
tp3497
Rp3498
I442
sg1
(g2
(S'S33'
p3499
I0
I1
tp3500
Rp3501
(I3
S'|'
p3502
NNNI33
I1
I0
tp3503
bS'https:\\/\\/vine.co\\/v\\/5wJbJLz3JA9'
p3504
tp3505
Rp3506
I443
sg1
(g2
(S'S33'
p3507
I0
I1
tp3508
Rp3509
(I3
S'|'
p3510
NNNI33
I1
I0
tp3511
bS'https:\\/\\/vine.co\\/v\\/MXtFYqALtKh'
p3512
tp3513
Rp3514
I836
sg1
(g2
(S'S33'
p3515
I0
I1
tp3516
Rp3517
(I3
S'|'
p3518
NNNI33
I1
I0
tp3519
bS'https:\\/\\/vine.co\\/v\\/i6AX96L7Xgi'
p3520
tp3521
Rp3522
I638
sg1
(g2
(S'S33'
p3523
I0
I1
tp3524
Rp3525
(I3
S'|'
p3526
NNNI33
I1
I0
tp3527
bS'https:\\/\\/vine.co\\/v\\/hw3IllDgh9D'
p3528
tp3529
Rp3530
I446
sg1
(g2
(S'S33'
p3531
I0
I1
tp3532
Rp3533
(I3
S'|'
p3534
NNNI33
I1
I0
tp3535
bS'https:\\/\\/vine.co\\/v\\/eujhTuhh5bj'
p3536
tp3537
Rp3538
I448
sg1
(g2
(S'S33'
p3539
I0
I1
tp3540
Rp3541
(I3
S'|'
p3542
NNNI33
I1
I0
tp3543
bS'https:\\/\\/vine.co\\/v\\/eEZXZI1rqxX'
p3544
tp3545
Rp3546
I449
sg1
(g2
(S'S33'
p3547
I0
I1
tp3548
Rp3549
(I3
S'|'
p3550
NNNI33
I1
I0
tp3551
bS'https:\\/\\/vine.co\\/v\\/i7r0KmLmA7A'
p3552
tp3553
Rp3554
I450
sg1
(g2
(S'S33'
p3555
I0
I1
tp3556
Rp3557
(I3
S'|'
p3558
NNNI33
I1
I0
tp3559
bS'https:\\/\\/vine.co\\/v\\/5adx5rlY33q'
p3560
tp3561
Rp3562
I19
sg1
(g2
(S'S33'
p3563
I0
I1
tp3564
Rp3565
(I3
S'|'
p3566
NNNI33
I1
I0
tp3567
bS'https:\\/\\/vine.co\\/v\\/M9wBHVWzi9Z'
p3568
tp3569
Rp3570
I100
sg1
(g2
(S'S33'
p3571
I0
I1
tp3572
Rp3573
(I3
S'|'
p3574
NNNI33
I1
I0
tp3575
bS'https:\\/\\/vine.co\\/v\\/5iYH9pYmZEh'
p3576
tp3577
Rp3578
I478
sg1
(g2
(S'S33'
p3579
I0
I1
tp3580
Rp3581
(I3
S'|'
p3582
NNNI33
I1
I0
tp3583
bS'https:\\/\\/vine.co\\/v\\/5KtxAp1lBzW'
p3584
tp3585
Rp3586
I455
sg1
(g2
(S'S33'
p3587
I0
I1
tp3588
Rp3589
(I3
S'|'
p3590
NNNI33
I1
I0
tp3591
bS'https:\\/\\/vine.co\\/v\\/h7MjIijU0BQ'
p3592
tp3593
Rp3594
I456
sg1
(g2
(S'S33'
p3595
I0
I1
tp3596
Rp3597
(I3
S'|'
p3598
NNNI33
I1
I0
tp3599
bS'https:\\/\\/vine.co\\/v\\/eYA53dpMLzv'
p3600
tp3601
Rp3602
I457
sg1
(g2
(S'S33'
p3603
I0
I1
tp3604
Rp3605
(I3
S'|'
p3606
NNNI33
I1
I0
tp3607
bS'https:\\/\\/vine.co\\/v\\/eHvL5xEBjBa'
p3608
tp3609
Rp3610
I458
sg1
(g2
(S'S33'
p3611
I0
I1
tp3612
Rp3613
(I3
S'|'
p3614
NNNI33
I1
I0
tp3615
bS'https:\\/\\/vine.co\\/v\\/eLa0m0ze5Dx'
p3616
tp3617
Rp3618
I459
sg1
(g2
(S'S33'
p3619
I0
I1
tp3620
Rp3621
(I3
S'|'
p3622
NNNI33
I1
I0
tp3623
bS'https:\\/\\/vine.co\\/v\\/eYu0pIUTl56'
p3624
tp3625
Rp3626
I460
sg1
(g2
(S'S33'
p3627
I0
I1
tp3628
Rp3629
(I3
S'|'
p3630
NNNI33
I1
I0
tp3631
bS'https:\\/\\/vine.co\\/v\\/MQlPUaF9idr'
p3632
tp3633
Rp3634
I461
sg1
(g2
(S'S33'
p3635
I0
I1
tp3636
Rp3637
(I3
S'|'
p3638
NNNI33
I1
I0
tp3639
bS'https:\\/\\/vine.co\\/v\\/MTOZrJqZrYF'
p3640
tp3641
Rp3642
I462
sg1
(g2
(S'S33'
p3643
I0
I1
tp3644
Rp3645
(I3
S'|'
p3646
NNNI33
I1
I0
tp3647
bS'https:\\/\\/vine.co\\/v\\/Ou9JOVE6EWb'
p3648
tp3649
Rp3650
I463
sg1
(g2
(S'S33'
p3651
I0
I1
tp3652
Rp3653
(I3
S'|'
p3654
NNNI33
I1
I0
tp3655
bS'https:\\/\\/vine.co\\/v\\/OKZYVwjq1V2'
p3656
tp3657
Rp3658
I464
sg1
(g2
(S'S33'
p3659
I0
I1
tp3660
Rp3661
(I3
S'|'
p3662
NNNI33
I1
I0
tp3663
bS'https:\\/\\/vine.co\\/v\\/eA1JXxeupQB'
p3664
tp3665
Rp3666
I642
sg1
(g2
(S'S33'
p3667
I0
I1
tp3668
Rp3669
(I3
S'|'
p3670
NNNI33
I1
I0
tp3671
bS'https:\\/\\/vine.co\\/v\\/iuv6KgHpFVM'
p3672
tp3673
Rp3674
I451
sg1
(g2
(S'S33'
p3675
I0
I1
tp3676
Rp3677
(I3
S'|'
p3678
NNNI33
I1
I0
tp3679
bS'https:\\/\\/vine.co\\/v\\/ibdpp3YBHiE'
p3680
tp3681
Rp3682
I467
sg1
(g2
(S'S33'
p3683
I0
I1
tp3684
Rp3685
(I3
S'|'
p3686
NNNI33
I1
I0
tp3687
bS'https:\\/\\/vine.co\\/v\\/5zPemmMdwUa'
p3688
tp3689
Rp3690
I1047
sg1
(g2
(S'S33'
p3691
I0
I1
tp3692
Rp3693
(I3
S'|'
p3694
NNNI33
I1
I0
tp3695
bS'https:\\/\\/vine.co\\/v\\/MgZ3l1AtnOm'
p3696
tp3697
Rp3698
I468
sg1
(g2
(S'S33'
p3699
I0
I1
tp3700
Rp3701
(I3
S'|'
p3702
NNNI33
I1
I0
tp3703
bS'https:\\/\\/vine.co\\/v\\/e5nZv5ZDH00'
p3704
tp3705
Rp3706
I469
sg1
(g2
(S'S33'
p3707
I0
I1
tp3708
Rp3709
(I3
S'|'
p3710
NNNI33
I1
I0
tp3711
bS'https:\\/\\/vine.co\\/v\\/OahzuBpP6ur'
p3712
tp3713
Rp3714
I470
sg1
(g2
(S'S33'
p3715
I0
I1
tp3716
Rp3717
(I3
S'|'
p3718
NNNI33
I1
I0
tp3719
bS'https:\\/\\/vine.co\\/v\\/MqmDdKWrdTX'
p3720
tp3721
Rp3722
I471
sg1
(g2
(S'S33'
p3723
I0
I1
tp3724
Rp3725
(I3
S'|'
p3726
NNNI33
I1
I0
tp3727
bS'https:\\/\\/vine.co\\/v\\/hMLliOMniLE'
p3728
tp3729
Rp3730
I472
sg1
(g2
(S'S33'
p3731
I0
I1
tp3732
Rp3733
(I3
S'|'
p3734
NNNI33
I1
I0
tp3735
bS'https:\\/\\/vine.co\\/v\\/ihYPM0P1LJ1'
p3736
tp3737
Rp3738
I473
sg1
(g2
(S'S33'
p3739
I0
I1
tp3740
Rp3741
(I3
S'|'
p3742
NNNI33
I1
I0
tp3743
bS'https:\\/\\/vine.co\\/v\\/iHgFIP7ind5'
p3744
tp3745
Rp3746
I474
sg1
(g2
(S'S33'
p3747
I0
I1
tp3748
Rp3749
(I3
S'|'
p3750
NNNI33
I1
I0
tp3751
bS'https:\\/\\/vine.co\\/v\\/OI16e5YgYu7'
p3752
tp3753
Rp3754
I453
sg1
(g2
(S'S33'
p3755
I0
I1
tp3756
Rp3757
(I3
S'|'
p3758
NNNI33
I1
I0
tp3759
bS'https:\\/\\/vine.co\\/v\\/exOumYJZQiX'
p3760
tp3761
Rp3762
I476
sg1
(g2
(S'S33'
p3763
I0
I1
tp3764
Rp3765
(I3
S'|'
p3766
NNNI33
I1
I0
tp3767
bS'https:\\/\\/vine.co\\/v\\/hY2PPurVtxH'
p3768
tp3769
Rp3770
I477
sg1
(g2
(S'S33'
p3771
I0
I1
tp3772
Rp3773
(I3
S'|'
p3774
NNNI33
I1
I0
tp3775
bS'https:\\/\\/vine.co\\/v\\/edQAviQ7rab'
p3776
tp3777
Rp3778
I479
sg1
(g2
(S'S33'
p3779
I0
I1
tp3780
Rp3781
(I3
S'|'
p3782
NNNI33
I1
I0
tp3783
bS'https:\\/\\/vine.co\\/v\\/OtQXhmuv0Z2'
p3784
tp3785
Rp3786
I480
sg1
(g2
(S'S33'
p3787
I0
I1
tp3788
Rp3789
(I3
S'|'
p3790
NNNI33
I1
I0
tp3791
bS'https:\\/\\/vine.co\\/v\\/e6QYBUjAIJg'
p3792
tp3793
Rp3794
I481
sg1
(g2
(S'S33'
p3795
I0
I1
tp3796
Rp3797
(I3
S'|'
p3798
NNNI33
I1
I0
tp3799
bS'https:\\/\\/vine.co\\/v\\/eudjLWnXKBp'
p3800
tp3801
Rp3802
I482
sg1
(g2
(S'S33'
p3803
I0
I1
tp3804
Rp3805
(I3
S'|'
p3806
NNNI33
I1
I0
tp3807
bS'https:\\/\\/vine.co\\/v\\/5upO3pwU9EW'
p3808
tp3809
Rp3810
I483
sg1
(g2
(S'S33'
p3811
I0
I1
tp3812
Rp3813
(I3
S'|'
p3814
NNNI33
I1
I0
tp3815
bS'https:\\/\\/vine.co\\/v\\/iEUWPPDZDVr'
p3816
tp3817
Rp3818
I484
sg1
(g2
(S'S33'
p3819
I0
I1
tp3820
Rp3821
(I3
S'|'
p3822
NNNI33
I1
I0
tp3823
bS'https:\\/\\/vine.co\\/v\\/ibFH7bQVaHK'
p3824
tp3825
Rp3826
I485
sg1
(g2
(S'S33'
p3827
I0
I1
tp3828
Rp3829
(I3
S'|'
p3830
NNNI33
I1
I0
tp3831
bS'https:\\/\\/vine.co\\/v\\/5D3EnImW99n'
p3832
tp3833
Rp3834
I486
sg1
(g2
(S'S33'
p3835
I0
I1
tp3836
Rp3837
(I3
S'|'
p3838
NNNI33
I1
I0
tp3839
bS'https:\\/\\/vine.co\\/v\\/eTzKzPmldld'
p3840
tp3841
Rp3842
I487
sg1
(g2
(S'S33'
p3843
I0
I1
tp3844
Rp3845
(I3
S'|'
p3846
NNNI33
I1
I0
tp3847
bS'https:\\/\\/vine.co\\/v\\/eQTpUzPxedi'
p3848
tp3849
Rp3850
I489
sg1
(g2
(S'S33'
p3851
I0
I1
tp3852
Rp3853
(I3
S'|'
p3854
NNNI33
I1
I0
tp3855
bS'https:\\/\\/vine.co\\/v\\/hIDMrDbrrDl'
p3856
tp3857
Rp3858
I490
sg1
(g2
(S'S33'
p3859
I0
I1
tp3860
Rp3861
(I3
S'|'
p3862
NNNI33
I1
I0
tp3863
bS'https:\\/\\/vine.co\\/v\\/e7J9iHY6ODP'
p3864
tp3865
Rp3866
I491
sg1
(g2
(S'S33'
p3867
I0
I1
tp3868
Rp3869
(I3
S'|'
p3870
NNNI33
I1
I0
tp3871
bS'https:\\/\\/vine.co\\/v\\/ejQd0iZdBBU'
p3872
tp3873
Rp3874
I492
sg1
(g2
(S'S33'
p3875
I0
I1
tp3876
Rp3877
(I3
S'|'
p3878
NNNI33
I1
I0
tp3879
bS'https:\\/\\/vine.co\\/v\\/OQA1dibTEJ9'
p3880
tp3881
Rp3882
I1037
sg1
(g2
(S'S33'
p3883
I0
I1
tp3884
Rp3885
(I3
S'|'
p3886
NNNI33
I1
I0
tp3887
bS'https:\\/\\/vine.co\\/v\\/OvPhBwjqEhJ'
p3888
tp3889
Rp3890
I494
sg1
(g2
(S'S33'
p3891
I0
I1
tp3892
Rp3893
(I3
S'|'
p3894
NNNI33
I1
I0
tp3895
bS'https:\\/\\/vine.co\\/v\\/hQJbaj1VpIz'
p3896
tp3897
Rp3898
I496
sg1
(g2
(S'S33'
p3899
I0
I1
tp3900
Rp3901
(I3
S'|'
p3902
NNNI33
I1
I0
tp3903
bS'https:\\/\\/vine.co\\/v\\/imEvEgr5u2K'
p3904
tp3905
Rp3906
I498
sg1
(g2
(S'S33'
p3907
I0
I1
tp3908
Rp3909
(I3
S'|'
p3910
NNNI33
I1
I0
tp3911
bS'https:\\/\\/vine.co\\/v\\/epOBP6x1Xxt'
p3912
tp3913
Rp3914
I499
sg1
(g2
(S'S33'
p3915
I0
I1
tp3916
Rp3917
(I3
S'|'
p3918
NNNI33
I1
I0
tp3919
bS'https:\\/\\/vine.co\\/v\\/ihvHLTYJr97'
p3920
tp3921
Rp3922
I500
sg1
(g2
(S'S33'
p3923
I0
I1
tp3924
Rp3925
(I3
S'|'
p3926
NNNI33
I1
I0
tp3927
bS'https:\\/\\/vine.co\\/v\\/erQH0K9JthD'
p3928
tp3929
Rp3930
I1075
sg1
(g2
(S'S33'
p3931
I0
I1
tp3932
Rp3933
(I3
S'|'
p3934
NNNI33
I1
I0
tp3935
bS'https:\\/\\/vine.co\\/v\\/OII61OXQen6'
p3936
tp3937
Rp3938
I501
sg1
(g2
(S'S33'
p3939
I0
I1
tp3940
Rp3941
(I3
S'|'
p3942
NNNI33
I1
I0
tp3943
bS'https:\\/\\/vine.co\\/v\\/M1WebTPBD0v'
p3944
tp3945
Rp3946
I502
sg1
(g2
(S'S33'
p3947
I0
I1
tp3948
Rp3949
(I3
S'|'
p3950
NNNI33
I1
I0
tp3951
bS'https:\\/\\/vine.co\\/v\\/MLMb0XqXU3v'
p3952
tp3953
Rp3954
I503
sg1
(g2
(S'S33'
p3955
I0
I1
tp3956
Rp3957
(I3
S'|'
p3958
NNNI33
I1
I0
tp3959
bS'https:\\/\\/vine.co\\/v\\/eEp6DrVVuXM'
p3960
tp3961
Rp3962
I504
sg1
(g2
(S'S33'
p3963
I0
I1
tp3964
Rp3965
(I3
S'|'
p3966
NNNI33
I1
I0
tp3967
bS'https:\\/\\/vine.co\\/v\\/O9deFBO6HZW'
p3968
tp3969
Rp3970
I505
sg1
(g2
(S'S33'
p3971
I0
I1
tp3972
Rp3973
(I3
S'|'
p3974
NNNI33
I1
I0
tp3975
bS'https:\\/\\/vine.co\\/v\\/5HxaWM9h6xm'
p3976
tp3977
Rp3978
I506
sg1
(g2
(S'S33'
p3979
I0
I1
tp3980
Rp3981
(I3
S'|'
p3982
NNNI33
I1
I0
tp3983
bS'https:\\/\\/vine.co\\/v\\/iY25a7wlXPX'
p3984
tp3985
Rp3986
I507
sg1
(g2
(S'S33'
p3987
I0
I1
tp3988
Rp3989
(I3
S'|'
p3990
NNNI33
I1
I0
tp3991
bS'https:\\/\\/vine.co\\/v\\/eDpWPuLlTxr'
p3992
tp3993
Rp3994
I508
sg1
(g2
(S'S33'
p3995
I0
I1
tp3996
Rp3997
(I3
S'|'
p3998
NNNI33
I1
I0
tp3999
bS'https:\\/\\/vine.co\\/v\\/eWhhnDI21zZ'
p4000
tp4001
Rp4002
I509
sg1
(g2
(S'S33'
p4003
I0
I1
tp4004
Rp4005
(I3
S'|'
p4006
NNNI33
I1
I0
tp4007
bS'https:\\/\\/vine.co\\/v\\/eiH5wUAIdzB'
p4008
tp4009
Rp4010
I510
sg1
(g2
(S'S33'
p4011
I0
I1
tp4012
Rp4013
(I3
S'|'
p4014
NNNI33
I1
I0
tp4015
bS'https:\\/\\/vine.co\\/v\\/huHUPLnx1dg'
p4016
tp4017
Rp4018
I511
sg1
(g2
(S'S33'
p4019
I0
I1
tp4020
Rp4021
(I3
S'|'
p4022
NNNI33
I1
I0
tp4023
bS'https:\\/\\/vine.co\\/v\\/5iVim9VAtlq'
p4024
tp4025
Rp4026
I512
sg1
(g2
(S'S33'
p4027
I0
I1
tp4028
Rp4029
(I3
S'|'
p4030
NNNI33
I1
I0
tp4031
bS'https:\\/\\/vine.co\\/v\\/bVgr77m3x1F'
p4032
tp4033
Rp4034
I513
sg1
(g2
(S'S33'
p4035
I0
I1
tp4036
Rp4037
(I3
S'|'
p4038
NNNI33
I1
I0
tp4039
bS'https:\\/\\/vine.co\\/v\\/5OqV2HvU6Fx'
p4040
tp4041
Rp4042
I843
sg1
(g2
(S'S33'
p4043
I0
I1
tp4044
Rp4045
(I3
S'|'
p4046
NNNI33
I1
I0
tp4047
bS'https:\\/\\/vine.co\\/v\\/MrHEbHhwM22'
p4048
tp4049
Rp4050
I515
sg1
(g2
(S'S33'
p4051
I0
I1
tp4052
Rp4053
(I3
S'|'
p4054
NNNI33
I1
I0
tp4055
bS'https:\\/\\/vine.co\\/v\\/hE3TnalEuqj'
p4056
tp4057
Rp4058
I878
sg1
(g2
(S'S33'
p4059
I0
I1
tp4060
Rp4061
(I3
S'|'
p4062
NNNI33
I1
I0
tp4063
bS'https:\\/\\/vine.co\\/v\\/h7UJVmlh2aL'
p4064
tp4065
Rp4066
I764
sg1
(g2
(S'S33'
p4067
I0
I1
tp4068
Rp4069
(I3
S'|'
p4070
NNNI33
I1
I0
tp4071
bS'https:\\/\\/vine.co\\/v\\/e2YAatuipVW'
p4072
tp4073
Rp4074
I516
sg1
(g2
(S'S33'
p4075
I0
I1
tp4076
Rp4077
(I3
S'|'
p4078
NNNI33
I1
I0
tp4079
bS'https:\\/\\/vine.co\\/v\\/MWpl0d9OzbQ'
p4080
tp4081
Rp4082
I517
sg1
(g2
(S'S33'
p4083
I0
I1
tp4084
Rp4085
(I3
S'|'
p4086
NNNI33
I1
I0
tp4087
bS'https:\\/\\/vine.co\\/v\\/OHa76XHVqXm'
p4088
tp4089
Rp4090
I518
sg1
(g2
(S'S33'
p4091
I0
I1
tp4092
Rp4093
(I3
S'|'
p4094
NNNI33
I1
I0
tp4095
bS'https:\\/\\/vine.co\\/v\\/eIppWlbYvTP'
p4096
tp4097
Rp4098
I519
sg1
(g2
(S'S33'
p4099
I0
I1
tp4100
Rp4101
(I3
S'|'
p4102
NNNI33
I1
I0
tp4103
bS'https:\\/\\/vine.co\\/v\\/OPt6UwD0p20'
p4104
tp4105
Rp4106
I520
sg1
(g2
(S'S33'
p4107
I0
I1
tp4108
Rp4109
(I3
S'|'
p4110
NNNI33
I1
I0
tp4111
bS'https:\\/\\/vine.co\\/v\\/eOx6eJ7ia3e'
p4112
tp4113
Rp4114
I521
sg1
(g2
(S'S33'
p4115
I0
I1
tp4116
Rp4117
(I3
S'|'
p4118
NNNI33
I1
I0
tp4119
bS'https:\\/\\/vine.co\\/v\\/OP35HXFBiwM'
p4120
tp4121
Rp4122
I1125
sg1
(g2
(S'S33'
p4123
I0
I1
tp4124
Rp4125
(I3
S'|'
p4126
NNNI33
I1
I0
tp4127
bS'https:\\/\\/vine.co\\/v\\/Mbr6HaBKzbA'
p4128
tp4129
Rp4130
I522
sg1
(g2
(S'S33'
p4131
I0
I1
tp4132
Rp4133
(I3
S'|'
p4134
NNNI33
I1
I0
tp4135
bS'https:\\/\\/vine.co\\/v\\/5dIe2TFUhlg'
p4136
tp4137
Rp4138
I523
sg1
(g2
(S'S33'
p4139
I0
I1
tp4140
Rp4141
(I3
S'|'
p4142
NNNI33
I1
I0
tp4143
bS'https:\\/\\/vine.co\\/v\\/eIegupteHvd'
p4144
tp4145
Rp4146
I524
sg1
(g2
(S'S33'
p4147
I0
I1
tp4148
Rp4149
(I3
S'|'
p4150
NNNI33
I1
I0
tp4151
bS'https:\\/\\/vine.co\\/v\\/imxB65mIUWV'
p4152
tp4153
Rp4154
I525
sg1
(g2
(S'S33'
p4155
I0
I1
tp4156
Rp4157
(I3
S'|'
p4158
NNNI33
I1
I0
tp4159
bS'https:\\/\\/vine.co\\/v\\/OFvb59T2KIJ'
p4160
tp4161
Rp4162
I526
sg1
(g2
(S'S33'
p4163
I0
I1
tp4164
Rp4165
(I3
S'|'
p4166
NNNI33
I1
I0
tp4167
bS'https:\\/\\/vine.co\\/v\\/OLbwUQaxr1B'
p4168
tp4169
Rp4170
I527
sg1
(g2
(S'S33'
p4171
I0
I1
tp4172
Rp4173
(I3
S'|'
p4174
NNNI33
I1
I0
tp4175
bS'https:\\/\\/vine.co\\/v\\/inLwuOzYYd9'
p4176
tp4177
Rp4178
I311
sg1
(g2
(S'S33'
p4179
I0
I1
tp4180
Rp4181
(I3
S'|'
p4182
NNNI33
I1
I0
tp4183
bS'https:\\/\\/vine.co\\/v\\/OjVz715eiK7'
p4184
tp4185
Rp4186
I1031
sg1
(g2
(S'S33'
p4187
I0
I1
tp4188
Rp4189
(I3
S'|'
p4190
NNNI33
I1
I0
tp4191
bS'https:\\/\\/vine.co\\/v\\/ObnXqe6taU5'
p4192
tp4193
Rp4194
I529
sg1
(g2
(S'S33'
p4195
I0
I1
tp4196
Rp4197
(I3
S'|'
p4198
NNNI33
I1
I0
tp4199
bS'https:\\/\\/vine.co\\/v\\/imZrrhH6d2r'
p4200
tp4201
Rp4202
I530
sg1
(g2
(S'S33'
p4203
I0
I1
tp4204
Rp4205
(I3
S'|'
p4206
NNNI33
I1
I0
tp4207
bS'https:\\/\\/vine.co\\/v\\/i3hF1H2iWma'
p4208
tp4209
Rp4210
I531
sg1
(g2
(S'S33'
p4211
I0
I1
tp4212
Rp4213
(I3
S'|'
p4214
NNNI33
I1
I0
tp4215
bS'https:\\/\\/vine.co\\/v\\/5Z2i0Tq0eUu'
p4216
tp4217
Rp4218
I258
sg1
(g2
(S'S33'
p4219
I0
I1
tp4220
Rp4221
(I3
S'|'
p4222
NNNI33
I1
I0
tp4223
bS'https:\\/\\/vine.co\\/v\\/iurzLhwY7x0'
p4224
tp4225
Rp4226
I533
sg1
(g2
(S'S33'
p4227
I0
I1
tp4228
Rp4229
(I3
S'|'
p4230
NNNI33
I1
I0
tp4231
bS'https:\\/\\/vine.co\\/v\\/eYvjXUUr199'
p4232
tp4233
Rp4234
I1101
sg1
(g2
(S'S33'
p4235
I0
I1
tp4236
Rp4237
(I3
S'|'
p4238
NNNI33
I1
I0
tp4239
bS'https:\\/\\/vine.co\\/v\\/MH9qld7z6pM'
p4240
tp4241
Rp4242
I534
sg1
(g2
(S'S33'
p4243
I0
I1
tp4244
Rp4245
(I3
S'|'
p4246
NNNI33
I1
I0
tp4247
bS'https:\\/\\/vine.co\\/v\\/eDWHhFz5F3t'
p4248
tp4249
Rp4250
I535
sg1
(g2
(S'S33'
p4251
I0
I1
tp4252
Rp4253
(I3
S'|'
p4254
NNNI33
I1
I0
tp4255
bS'https:\\/\\/vine.co\\/v\\/ixgauu5QQnq'
p4256
tp4257
Rp4258
I536
sg1
(g2
(S'S33'
p4259
I0
I1
tp4260
Rp4261
(I3
S'|'
p4262
NNNI33
I1
I0
tp4263
bS'https:\\/\\/vine.co\\/v\\/iEOu0Apu02x'
p4264
tp4265
Rp4266
I537
sg1
(g2
(S'S33'
p4267
I0
I1
tp4268
Rp4269
(I3
S'|'
p4270
NNNI33
I1
I0
tp4271
bS'https:\\/\\/vine.co\\/v\\/e6hl6i9vxWY'
p4272
tp4273
Rp4274
I66
sg1
(g2
(S'S33'
p4275
I0
I1
tp4276
Rp4277
(I3
S'|'
p4278
NNNI33
I1
I0
tp4279
bS'https:\\/\\/vine.co\\/v\\/igg9WaYiP95'
p4280
tp4281
Rp4282
I539
sg1
(g2
(S'S33'
p4283
I0
I1
tp4284
Rp4285
(I3
S'|'
p4286
NNNI33
I1
I0
tp4287
bS'https:\\/\\/vine.co\\/v\\/eQMFMj3ptr9'
p4288
tp4289
Rp4290
I825
sg1
(g2
(S'S33'
p4291
I0
I1
tp4292
Rp4293
(I3
S'|'
p4294
NNNI33
I1
I0
tp4295
bS'https:\\/\\/vine.co\\/v\\/iUMH7zb6JpM'
p4296
tp4297
Rp4298
I540
sg1
(g2
(S'S33'
p4299
I0
I1
tp4300
Rp4301
(I3
S'|'
p4302
NNNI33
I1
I0
tp4303
bS'https:\\/\\/vine.co\\/v\\/OEppMFbejFz'
p4304
tp4305
Rp4306
I541
sg1
(g2
(S'S33'
p4307
I0
I1
tp4308
Rp4309
(I3
S'|'
p4310
NNNI33
I1
I0
tp4311
bS'https:\\/\\/vine.co\\/v\\/eQ6LtnJ9Z7Z'
p4312
tp4313
Rp4314
I542
sg1
(g2
(S'S33'
p4315
I0
I1
tp4316
Rp4317
(I3
S'|'
p4318
NNNI33
I1
I0
tp4319
bS'https:\\/\\/vine.co\\/v\\/hhbTFr1ZzTQ'
p4320
tp4321
Rp4322
I543
sg1
(g2
(S'S33'
p4323
I0
I1
tp4324
Rp4325
(I3
S'|'
p4326
NNNI33
I1
I0
tp4327
bS'https:\\/\\/vine.co\\/v\\/5BKrwdixt1j'
p4328
tp4329
Rp4330
I546
sg1
(g2
(S'S33'
p4331
I0
I1
tp4332
Rp4333
(I3
S'|'
p4334
NNNI33
I1
I0
tp4335
bS'https:\\/\\/vine.co\\/v\\/MnArIOejBUl'
p4336
tp4337
Rp4338
I1078
sg1
(g2
(S'S33'
p4339
I0
I1
tp4340
Rp4341
(I3
S'|'
p4342
NNNI33
I1
I0
tp4343
bS'https:\\/\\/vine.co\\/v\\/hQFqeHXUUTv'
p4344
tp4345
Rp4346
I547
sg1
(g2
(S'S33'
p4347
I0
I1
tp4348
Rp4349
(I3
S'|'
p4350
NNNI33
I1
I0
tp4351
bS'https:\\/\\/vine.co\\/v\\/e65zmXInjUl'
p4352
tp4353
Rp4354
I549
sg1
(g2
(S'S33'
p4355
I0
I1
tp4356
Rp4357
(I3
S'|'
p4358
NNNI33
I1
I0
tp4359
bS'https:\\/\\/vine.co\\/v\\/eaituwOJWHt'
p4360
tp4361
Rp4362
I550
sg1
(g2
(S'S33'
p4363
I0
I1
tp4364
Rp4365
(I3
S'|'
p4366
NNNI33
I1
I0
tp4367
bS'https:\\/\\/vine.co\\/v\\/hT2wKni63Km'
p4368
tp4369
Rp4370
I551
sg1
(g2
(S'S33'
p4371
I0
I1
tp4372
Rp4373
(I3
S'|'
p4374
NNNI33
I1
I0
tp4375
bS'https:\\/\\/vine.co\\/v\\/eYKwIAtr3Bz'
p4376
tp4377
Rp4378
I552
sg1
(g2
(S'S33'
p4379
I0
I1
tp4380
Rp4381
(I3
S'|'
p4382
NNNI33
I1
I0
tp4383
bS'https:\\/\\/vine.co\\/v\\/ija0gnKq9ih'
p4384
tp4385
Rp4386
I553
sg1
(g2
(S'S33'
p4387
I0
I1
tp4388
Rp4389
(I3
S'|'
p4390
NNNI33
I1
I0
tp4391
bS'https:\\/\\/vine.co\\/v\\/5bJTDJi1puI'
p4392
tp4393
Rp4394
I636
sg1
(g2
(S'S33'
p4395
I0
I1
tp4396
Rp4397
(I3
S'|'
p4398
NNNI33
I1
I0
tp4399
bS'https:\\/\\/vine.co\\/v\\/it3nbMOajln'
p4400
tp4401
Rp4402
I555
sg1
(g2
(S'S33'
p4403
I0
I1
tp4404
Rp4405
(I3
S'|'
p4406
NNNI33
I1
I0
tp4407
bS'https:\\/\\/vine.co\\/v\\/ie9vnixt3ur'
p4408
tp4409
Rp4410
I557
sg1
(g2
(S'S33'
p4411
I0
I1
tp4412
Rp4413
(I3
S'|'
p4414
NNNI33
I1
I0
tp4415
bS'https:\\/\\/vine.co\\/v\\/MeLqrFYxiE7'
p4416
tp4417
Rp4418
I558
sg1
(g2
(S'S33'
p4419
I0
I1
tp4420
Rp4421
(I3
S'|'
p4422
NNNI33
I1
I0
tp4423
bS'https:\\/\\/vine.co\\/v\\/en7WDxlMK7Z'
p4424
tp4425
Rp4426
I560
sg1
(g2
(S'S33'
p4427
I0
I1
tp4428
Rp4429
(I3
S'|'
p4430
NNNI33
I1
I0
tp4431
bS'https:\\/\\/vine.co\\/v\\/eY6pMn7TwA7'
p4432
tp4433
Rp4434
I466
sg1
(g2
(S'S33'
p4435
I0
I1
tp4436
Rp4437
(I3
S'|'
p4438
NNNI33
I1
I0
tp4439
bS'https:\\/\\/vine.co\\/v\\/MrTnmOA2JUV'
p4440
tp4441
Rp4442
I562
sg1
(g2
(S'S33'
p4443
I0
I1
tp4444
Rp4445
(I3
S'|'
p4446
NNNI33
I1
I0
tp4447
bS'https:\\/\\/vine.co\\/v\\/eLjmLmMmtv9'
p4448
tp4449
Rp4450
I563
sg1
(g2
(S'S33'
p4451
I0
I1
tp4452
Rp4453
(I3
S'|'
p4454
NNNI33
I1
I0
tp4455
bS'https:\\/\\/vine.co\\/v\\/edKAjbHmTbM'
p4456
tp4457
Rp4458
I52
sg1
(g2
(S'S33'
p4459
I0
I1
tp4460
Rp4461
(I3
S'|'
p4462
NNNI33
I1
I0
tp4463
bS'https:\\/\\/vine.co\\/v\\/OglQz5gA66u'
p4464
tp4465
Rp4466
I565
sg1
(g2
(S'S33'
p4467
I0
I1
tp4468
Rp4469
(I3
S'|'
p4470
NNNI33
I1
I0
tp4471
bS'https:\\/\\/vine.co\\/v\\/OLY9EvWqqwX'
p4472
tp4473
Rp4474
I566
sg1
(g2
(S'S33'
p4475
I0
I1
tp4476
Rp4477
(I3
S'|'
p4478
NNNI33
I1
I0
tp4479
bS'https:\\/\\/vine.co\\/v\\/MWZMlX9ruOa'
p4480
tp4481
Rp4482
I567
sg1
(g2
(S'S33'
p4483
I0
I1
tp4484
Rp4485
(I3
S'|'
p4486
NNNI33
I1
I0
tp4487
bS'https:\\/\\/vine.co\\/v\\/iqdvi0d5JH1'
p4488
tp4489
Rp4490
I568
sg1
(g2
(S'S33'
p4491
I0
I1
tp4492
Rp4493
(I3
S'|'
p4494
NNNI33
I1
I0
tp4495
bS'https:\\/\\/vine.co\\/v\\/MTAbg2HULbr'
p4496
tp4497
Rp4498
I86
sg1
(g2
(S'S33'
p4499
I0
I1
tp4500
Rp4501
(I3
S'|'
p4502
NNNI33
I1
I0
tp4503
bS'https:\\/\\/vine.co\\/v\\/ermeLL6d9J6'
p4504
tp4505
Rp4506
I571
sg1
(g2
(S'S33'
p4507
I0
I1
tp4508
Rp4509
(I3
S'|'
p4510
NNNI33
I1
I0
tp4511
bS'https:\\/\\/vine.co\\/v\\/ixXzKEbD9I0'
p4512
tp4513
Rp4514
I572
sg1
(g2
(S'S33'
p4515
I0
I1
tp4516
Rp4517
(I3
S'|'
p4518
NNNI33
I1
I0
tp4519
bS'https:\\/\\/vine.co\\/v\\/iaH2PH9v0jn'
p4520
tp4521
Rp4522
I573
sg1
(g2
(S'S33'
p4523
I0
I1
tp4524
Rp4525
(I3
S'|'
p4526
NNNI33
I1
I0
tp4527
bS'https:\\/\\/vine.co\\/v\\/ea0OwvPTx9l'
p4528
tp4529
Rp4530
I574
sg1
(g2
(S'S33'
p4531
I0
I1
tp4532
Rp4533
(I3
S'|'
p4534
NNNI33
I1
I0
tp4535
bS'https:\\/\\/vine.co\\/v\\/i1qihniIYL6'
p4536
tp4537
Rp4538
I581
sg1
(g2
(S'S33'
p4539
I0
I1
tp4540
Rp4541
(I3
S'|'
p4542
NNNI33
I1
I0
tp4543
bS'https:\\/\\/vine.co\\/v\\/eEw7xtQ1U0K'
p4544
tp4545
Rp4546
I576
sg1
(g2
(S'S33'
p4547
I0
I1
tp4548
Rp4549
(I3
S'|'
p4550
NNNI33
I1
I0
tp4551
bS'https:\\/\\/vine.co\\/v\\/i3xQjWd2TJ9'
p4552
tp4553
Rp4554
I577
sg1
(g2
(S'S33'
p4555
I0
I1
tp4556
Rp4557
(I3
S'|'
p4558
NNNI33
I1
I0
tp4559
bS'https:\\/\\/vine.co\\/v\\/iXWz6516Ipz'
p4560
tp4561
Rp4562
I1135
sg1
(g2
(S'S33'
p4563
I0
I1
tp4564
Rp4565
(I3
S'|'
p4566
NNNI33
I1
I0
tp4567
bS'https:\\/\\/vine.co\\/v\\/itzw6AXuXth'
p4568
tp4569
Rp4570
I1054
sg1
(g2
(S'S33'
p4571
I0
I1
tp4572
Rp4573
(I3
S'|'
p4574
NNNI33
I1
I0
tp4575
bS'https:\\/\\/vine.co\\/v\\/iwKm6wppIIH'
p4576
tp4577
Rp4578
I582
sg1
(g2
(S'S33'
p4579
I0
I1
tp4580
Rp4581
(I3
S'|'
p4582
NNNI33
I1
I0
tp4583
bS'https:\\/\\/vine.co\\/v\\/MTrtQLuuhY0'
p4584
tp4585
Rp4586
I583
sg1
(g2
(S'S33'
p4587
I0
I1
tp4588
Rp4589
(I3
S'|'
p4590
NNNI33
I1
I0
tp4591
bS'https:\\/\\/vine.co\\/v\\/OhwYaXagiaU'
p4592
tp4593
Rp4594
I584
sg1
(g2
(S'S33'
p4595
I0
I1
tp4596
Rp4597
(I3
S'|'
p4598
NNNI33
I1
I0
tp4599
bS'https:\\/\\/vine.co\\/v\\/ilaO1u2P2LQ'
p4600
tp4601
Rp4602
I585
sg1
(g2
(S'S33'
p4603
I0
I1
tp4604
Rp4605
(I3
S'|'
p4606
NNNI33
I1
I0
tp4607
bS'https:\\/\\/vine.co\\/v\\/hMHIPbn7OWt'
p4608
tp4609
Rp4610
I586
sg1
(g2
(S'S33'
p4611
I0
I1
tp4612
Rp4613
(I3
S'|'
p4614
NNNI33
I1
I0
tp4615
bS'https:\\/\\/vine.co\\/v\\/hMUx0KTO2zF'
p4616
tp4617
Rp4618
I587
sg1
(g2
(S'S33'
p4619
I0
I1
tp4620
Rp4621
(I3
S'|'
p4622
NNNI33
I1
I0
tp4623
bS'https:\\/\\/vine.co\\/v\\/ez9IATwLBTj'
p4624
tp4625
Rp4626
I588
sg1
(g2
(S'S33'
p4627
I0
I1
tp4628
Rp4629
(I3
S'|'
p4630
NNNI33
I1
I0
tp4631
bS'https:\\/\\/vine.co\\/v\\/ijmv0PD0XXD'
p4632
tp4633
Rp4634
I589
sg1
(g2
(S'S33'
p4635
I0
I1
tp4636
Rp4637
(I3
S'|'
p4638
NNNI33
I1
I0
tp4639
bS'https:\\/\\/vine.co\\/v\\/e9rD5nw2PVA'
p4640
tp4641
Rp4642
I372
sg1
(g2
(S'S33'
p4643
I0
I1
tp4644
Rp4645
(I3
S'|'
p4646
NNNI33
I1
I0
tp4647
bS'https:\\/\\/vine.co\\/v\\/eLzWh1tbnP6'
p4648
tp4649
Rp4650
I599
sg1
(g2
(S'S33'
p4651
I0
I1
tp4652
Rp4653
(I3
S'|'
p4654
NNNI33
I1
I0
tp4655
bS'https:\\/\\/vine.co\\/v\\/5g36juBKUUz'
p4656
tp4657
Rp4658
I591
sg1
(g2
(S'S33'
p4659
I0
I1
tp4660
Rp4661
(I3
S'|'
p4662
NNNI33
I1
I0
tp4663
bS'https:\\/\\/vine.co\\/v\\/ej9uQMBKWEh'
p4664
tp4665
Rp4666
I592
sg1
(g2
(S'S33'
p4667
I0
I1
tp4668
Rp4669
(I3
S'|'
p4670
NNNI33
I1
I0
tp4671
bS'https:\\/\\/vine.co\\/v\\/5MAMTP5nu3z'
p4672
tp4673
Rp4674
I593
sg1
(g2
(S'S33'
p4675
I0
I1
tp4676
Rp4677
(I3
S'|'
p4678
NNNI33
I1
I0
tp4679
bS'https:\\/\\/vine.co\\/v\\/M03tUtZUO67'
p4680
tp4681
Rp4682
I1056
sg1
(g2
(S'S33'
p4683
I0
I1
tp4684
Rp4685
(I3
S'|'
p4686
NNNI33
I1
I0
tp4687
bS'https:\\/\\/vine.co\\/v\\/MMMjL9vJDwI'
p4688
tp4689
Rp4690
I595
sg1
(g2
(S'S33'
p4691
I0
I1
tp4692
Rp4693
(I3
S'|'
p4694
NNNI33
I1
I0
tp4695
bS'https:\\/\\/vine.co\\/v\\/hgvVnYMXMml'
p4696
tp4697
Rp4698
I596
sg1
(g2
(S'S33'
p4699
I0
I1
tp4700
Rp4701
(I3
S'|'
p4702
NNNI33
I1
I0
tp4703
bS'https:\\/\\/vine.co\\/v\\/OXIqLvF17P9'
p4704
tp4705
Rp4706
I232
sg1
(g2
(S'S33'
p4707
I0
I1
tp4708
Rp4709
(I3
S'|'
p4710
NNNI33
I1
I0
tp4711
bS'https:\\/\\/vine.co\\/v\\/hIVB91JTBzv'
p4712
tp4713
Rp4714
I236
sg1
(g2
(S'S33'
p4715
I0
I1
tp4716
Rp4717
(I3
S'|'
p4718
NNNI33
I1
I0
tp4719
bS'https:\\/\\/vine.co\\/v\\/e1n6lXez3Az'
p4720
tp4721
Rp4722
I296
sg1
(g2
(S'S33'
p4723
I0
I1
tp4724
Rp4725
(I3
S'|'
p4726
NNNI33
I1
I0
tp4727
bS'https:\\/\\/vine.co\\/v\\/iUp6lUttaLO'
p4728
tp4729
Rp4730
I600
sg1
(g2
(S'S33'
p4731
I0
I1
tp4732
Rp4733
(I3
S'|'
p4734
NNNI33
I1
I0
tp4735
bS'https:\\/\\/vine.co\\/v\\/eH7UKqbdthQ'
p4736
tp4737
Rp4738
I601
sg1
(g2
(S'S33'
p4739
I0
I1
tp4740
Rp4741
(I3
S'|'
p4742
NNNI33
I1
I0
tp4743
bS'https:\\/\\/vine.co\\/v\\/Orp61032F3P'
p4744
tp4745
Rp4746
I603
sg1
(g2
(S'S33'
p4747
I0
I1
tp4748
Rp4749
(I3
S'|'
p4750
NNNI33
I1
I0
tp4751
bS'https:\\/\\/vine.co\\/v\\/iV3lbUwgYDX'
p4752
tp4753
Rp4754
I604
sg1
(g2
(S'S33'
p4755
I0
I1
tp4756
Rp4757
(I3
S'|'
p4758
NNNI33
I1
I0
tp4759
bS'https:\\/\\/vine.co\\/v\\/edzWx520Y0u'
p4760
tp4761
Rp4762
I605
sg1
(g2
(S'S33'
p4763
I0
I1
tp4764
Rp4765
(I3
S'|'
p4766
NNNI33
I1
I0
tp4767
bS'https:\\/\\/vine.co\\/v\\/Mrn9aiAzmtQ'
p4768
tp4769
Rp4770
I606
sg1
(g2
(S'S33'
p4771
I0
I1
tp4772
Rp4773
(I3
S'|'
p4774
NNNI33
I1
I0
tp4775
bS'https:\\/\\/vine.co\\/v\\/izjljaVAl65'
p4776
tp4777
Rp4778
I403
sg1
(g2
(S'S33'
p4779
I0
I1
tp4780
Rp4781
(I3
S'|'
p4782
NNNI33
I1
I0
tp4783
bS'https:\\/\\/vine.co\\/v\\/5mldtm13g16'
p4784
tp4785
Rp4786
I608
sg1
(g2
(S'S33'
p4787
I0
I1
tp4788
Rp4789
(I3
S'|'
p4790
NNNI33
I1
I0
tp4791
bS'https:\\/\\/vine.co\\/v\\/iUHIz9xl1U2'
p4792
tp4793
Rp4794
I609
sg1
(g2
(S'S33'
p4795
I0
I1
tp4796
Rp4797
(I3
S'|'
p4798
NNNI33
I1
I0
tp4799
bS'https:\\/\\/vine.co\\/v\\/iB0QOv73n7u'
p4800
tp4801
Rp4802
I610
sg1
(g2
(S'S33'
p4803
I0
I1
tp4804
Rp4805
(I3
S'|'
p4806
NNNI33
I1
I0
tp4807
bS'https:\\/\\/vine.co\\/v\\/OzHBQlZEVBa'
p4808
tp4809
Rp4810
I611
sg1
(g2
(S'S33'
p4811
I0
I1
tp4812
Rp4813
(I3
S'|'
p4814
NNNI33
I1
I0
tp4815
bS'https:\\/\\/vine.co\\/v\\/iQm3JAXuFmv'
p4816
tp4817
Rp4818
I612
sg1
(g2
(S'S33'
p4819
I0
I1
tp4820
Rp4821
(I3
S'|'
p4822
NNNI33
I1
I0
tp4823
bS'https:\\/\\/vine.co\\/v\\/OjMbKql6hHh'
p4824
tp4825
Rp4826
I613
sg1
(g2
(S'S33'
p4827
I0
I1
tp4828
Rp4829
(I3
S'|'
p4830
NNNI33
I1
I0
tp4831
bS'https:\\/\\/vine.co\\/v\\/elwTq5vWjVZ'
p4832
tp4833
Rp4834
I614
sg1
(g2
(S'S33'
p4835
I0
I1
tp4836
Rp4837
(I3
S'|'
p4838
NNNI33
I1
I0
tp4839
bS'https:\\/\\/vine.co\\/v\\/51qZHuIx3g7'
p4840
tp4841
Rp4842
I322
sg1
(g2
(S'S33'
p4843
I0
I1
tp4844
Rp4845
(I3
S'|'
p4846
NNNI33
I1
I0
tp4847
bS'https:\\/\\/vine.co\\/v\\/e1bjtuWHvup'
p4848
tp4849
Rp4850
I325
sg1
(g2
(S'S33'
p4851
I0
I1
tp4852
Rp4853
(I3
S'|'
p4854
NNNI33
I1
I0
tp4855
bS'https:\\/\\/vine.co\\/v\\/M9pm2Hdz7ZX'
p4856
tp4857
Rp4858
I617
sg1
(g2
(S'S33'
p4859
I0
I1
tp4860
Rp4861
(I3
S'|'
p4862
NNNI33
I1
I0
tp4863
bS'https:\\/\\/vine.co\\/v\\/e6vhaJiTHJQ'
p4864
tp4865
Rp4866
I618
sg1
(g2
(S'S33'
p4867
I0
I1
tp4868
Rp4869
(I3
S'|'
p4870
NNNI33
I1
I0
tp4871
bS'https:\\/\\/vine.co\\/v\\/56gBVWMXlQa'
p4872
tp4873
Rp4874
I619
sg1
(g2
(S'S33'
p4875
I0
I1
tp4876
Rp4877
(I3
S'|'
p4878
NNNI33
I1
I0
tp4879
bS'https:\\/\\/vine.co\\/v\\/eJPZeH7rpbg'
p4880
tp4881
Rp4882
I355
sg1
(g2
(S'S33'
p4883
I0
I1
tp4884
Rp4885
(I3
S'|'
p4886
NNNI33
I1
I0
tp4887
bS'https:\\/\\/vine.co\\/v\\/MmagHF50IiH'
p4888
tp4889
Rp4890
I621
sg1
(g2
(S'S33'
p4891
I0
I1
tp4892
Rp4893
(I3
S'|'
p4894
NNNI33
I1
I0
tp4895
bS'https:\\/\\/vine.co\\/v\\/h6zV3MnJJdB'
p4896
tp4897
Rp4898
I622
sg1
(g2
(S'S33'
p4899
I0
I1
tp4900
Rp4901
(I3
S'|'
p4902
NNNI33
I1
I0
tp4903
bS'https:\\/\\/vine.co\\/v\\/iqdJHt79ejD'
p4904
tp4905
Rp4906
I864
sg1
(g2
(S'S33'
p4907
I0
I1
tp4908
Rp4909
(I3
S'|'
p4910
NNNI33
I1
I0
tp4911
bS'https:\\/\\/vine.co\\/v\\/iI5AWFJHLFT'
p4912
tp4913
Rp4914
I475
sg1
(g2
(S'S33'
p4915
I0
I1
tp4916
Rp4917
(I3
S'|'
p4918
NNNI33
I1
I0
tp4919
bS'https:\\/\\/vine.co\\/v\\/eXtJtMEtr29'
p4920
tp4921
Rp4922
I625
sg1
(g2
(S'S33'
p4923
I0
I1
tp4924
Rp4925
(I3
S'|'
p4926
NNNI33
I1
I0
tp4927
bS'https:\\/\\/vine.co\\/v\\/OYv9jXWrali'
p4928
tp4929
Rp4930
I627
sg1
(g2
(S'S33'
p4931
I0
I1
tp4932
Rp4933
(I3
S'|'
p4934
NNNI33
I1
I0
tp4935
bS'https:\\/\\/vine.co\\/v\\/eqOtVZjlUti'
p4936
tp4937
Rp4938
I669
sg1
(g2
(S'S33'
p4939
I0
I1
tp4940
Rp4941
(I3
S'|'
p4942
NNNI33
I1
I0
tp4943
bS'https:\\/\\/vine.co\\/v\\/ea0bJgvBdiL'
p4944
tp4945
Rp4946
I629
sg1
(g2
(S'S33'
p4947
I0
I1
tp4948
Rp4949
(I3
S'|'
p4950
NNNI33
I1
I0
tp4951
bS'https:\\/\\/vine.co\\/v\\/5wOH6YMllJ0'
p4952
tp4953
Rp4954
I630
sg1
(g2
(S'S33'
p4955
I0
I1
tp4956
Rp4957
(I3
S'|'
p4958
NNNI33
I1
I0
tp4959
bS'https:\\/\\/vine.co\\/v\\/iL55uzPbWWn'
p4960
tp4961
Rp4962
I631
sg1
(g2
(S'S33'
p4963
I0
I1
tp4964
Rp4965
(I3
S'|'
p4966
NNNI33
I1
I0
tp4967
bS'https:\\/\\/vine.co\\/v\\/5AdBpFEIeVP'
p4968
tp4969
Rp4970
I632
sg1
(g2
(S'S33'
p4971
I0
I1
tp4972
Rp4973
(I3
S'|'
p4974
NNNI33
I1
I0
tp4975
bS'https:\\/\\/vine.co\\/v\\/b02YnMJwgFD'
p4976
tp4977
Rp4978
I633
sg1
(g2
(S'S33'
p4979
I0
I1
tp4980
Rp4981
(I3
S'|'
p4982
NNNI33
I1
I0
tp4983
bS'https:\\/\\/vine.co\\/v\\/MlwqW3DVEuQ'
p4984
tp4985
Rp4986
I634
sg1
(g2
(S'S33'
p4987
I0
I1
tp4988
Rp4989
(I3
S'|'
p4990
NNNI33
I1
I0
tp4991
bS'https:\\/\\/vine.co\\/v\\/eUZ2hz6I2b6'
p4992
tp4993
Rp4994
I635
sg1
(g2
(S'S33'
p4995
I0
I1
tp4996
Rp4997
(I3
S'|'
p4998
NNNI33
I1
I0
tp4999
bS'https:\\/\\/vine.co\\/v\\/iUgYrvF0W0F'
p5000
tp5001
Rp5002
I637
sg1
(g2
(S'S33'
p5003
I0
I1
tp5004
Rp5005
(I3
S'|'
p5006
NNNI33
I1
I0
tp5007
bS'https:\\/\\/vine.co\\/v\\/e6nLQQuYJPn'
p5008
tp5009
Rp5010
I958
sg1
(g2
(S'S33'
p5011
I0
I1
tp5012
Rp5013
(I3
S'|'
p5014
NNNI33
I1
I0
tp5015
bS'https:\\/\\/vine.co\\/v\\/ew2ZmAOVHhg'
p5016
tp5017
Rp5018
I445
sg1
(g2
(S'S33'
p5019
I0
I1
tp5020
Rp5021
(I3
S'|'
p5022
NNNI33
I1
I0
tp5023
bS'https:\\/\\/vine.co\\/v\\/epxqvw1XPXq'
p5024
tp5025
Rp5026
I249
sg1
(g2
(S'S33'
p5027
I0
I1
tp5028
Rp5029
(I3
S'|'
p5030
NNNI33
I1
I0
tp5031
bS'https:\\/\\/vine.co\\/v\\/bVlPhHavWwQ'
p5032
tp5033
Rp5034
I640
sg1
(g2
(S'S33'
p5035
I0
I1
tp5036
Rp5037
(I3
S'|'
p5038
NNNI33
I1
I0
tp5039
bS'https:\\/\\/vine.co\\/v\\/eIdYiX1h0Hp'
p5040
tp5041
Rp5042
I641
sg1
(g2
(S'S33'
p5043
I0
I1
tp5044
Rp5045
(I3
S'|'
p5046
NNNI33
I1
I0
tp5047
bS'https:\\/\\/vine.co\\/v\\/5dOiapQm61Y'
p5048
tp5049
Rp5050
I465
sg1
(g2
(S'S33'
p5051
I0
I1
tp5052
Rp5053
(I3
S'|'
p5054
NNNI33
I1
I0
tp5055
bS'https:\\/\\/vine.co\\/v\\/iL3WaKiV32z'
p5056
tp5057
Rp5058
I643
sg1
(g2
(S'S33'
p5059
I0
I1
tp5060
Rp5061
(I3
S'|'
p5062
NNNI33
I1
I0
tp5063
bS'https:\\/\\/vine.co\\/v\\/O1I3n3VDIFz'
p5064
tp5065
Rp5066
I644
sg1
(g2
(S'S33'
p5067
I0
I1
tp5068
Rp5069
(I3
S'|'
p5070
NNNI33
I1
I0
tp5071
bS'https:\\/\\/vine.co\\/v\\/h1uZMgPQenx'
p5072
tp5073
Rp5074
I294
sg1
(g2
(S'S33'
p5075
I0
I1
tp5076
Rp5077
(I3
S'|'
p5078
NNNI33
I1
I0
tp5079
bS'https:\\/\\/vine.co\\/v\\/enxuWhadEKP'
p5080
tp5081
Rp5082
I646
sg1
(g2
(S'S33'
p5083
I0
I1
tp5084
Rp5085
(I3
S'|'
p5086
NNNI33
I1
I0
tp5087
bS'https:\\/\\/vine.co\\/v\\/hgbab1H2LH7'
p5088
tp5089
Rp5090
I809
sg1
(g2
(S'S33'
p5091
I0
I1
tp5092
Rp5093
(I3
S'|'
p5094
NNNI33
I1
I0
tp5095
bS'https:\\/\\/vine.co\\/v\\/eO3XenQLzQq'
p5096
tp5097
Rp5098
I647
sg1
(g2
(S'S33'
p5099
I0
I1
tp5100
Rp5101
(I3
S'|'
p5102
NNNI33
I1
I0
tp5103
bS'https:\\/\\/vine.co\\/v\\/O2WJVYbg5eg'
p5104
tp5105
Rp5106
I497
sg1
(g2
(S'S33'
p5107
I0
I1
tp5108
Rp5109
(I3
S'|'
p5110
NNNI33
I1
I0
tp5111
bS'https:\\/\\/vine.co\\/v\\/ihW165jWK0T'
p5112
tp5113
Rp5114
I649
sg1
(g2
(S'S33'
p5115
I0
I1
tp5116
Rp5117
(I3
S'|'
p5118
NNNI33
I1
I0
tp5119
bS'https:\\/\\/vine.co\\/v\\/eU0MXJt5KOa'
p5120
tp5121
Rp5122
I1093
sg1
(g2
(S'S33'
p5123
I0
I1
tp5124
Rp5125
(I3
S'|'
p5126
NNNI33
I1
I0
tp5127
bS'https:\\/\\/vine.co\\/v\\/bVOggiI6BWl'
p5128
tp5129
Rp5130
I650
sg1
(g2
(S'S33'
p5131
I0
I1
tp5132
Rp5133
(I3
S'|'
p5134
NNNI33
I1
I0
tp5135
bS'https:\\/\\/vine.co\\/v\\/Owhr3ZliBvV'
p5136
tp5137
Rp5138
I651
sg1
(g2
(S'S33'
p5139
I0
I1
tp5140
Rp5141
(I3
S'|'
p5142
NNNI33
I1
I0
tp5143
bS'https:\\/\\/vine.co\\/v\\/OEWXmxmzV39'
p5144
tp5145
Rp5146
I652
sg1
(g2
(S'S33'
p5147
I0
I1
tp5148
Rp5149
(I3
S'|'
p5150
NNNI33
I1
I0
tp5151
bS'https:\\/\\/vine.co\\/v\\/ippB1DxaPru'
p5152
tp5153
Rp5154
I654
sg1
(g2
(S'S33'
p5155
I0
I1
tp5156
Rp5157
(I3
S'|'
p5158
NNNI33
I1
I0
tp5159
bS'https:\\/\\/vine.co\\/v\\/i5mKAzgwq3H'
p5160
tp5161
Rp5162
I545
sg1
(g2
(S'S33'
p5163
I0
I1
tp5164
Rp5165
(I3
S'|'
p5166
NNNI33
I1
I0
tp5167
bS'https:\\/\\/vine.co\\/v\\/OzaemAptXqV'
p5168
tp5169
Rp5170
I656
sg1
(g2
(S'S33'
p5171
I0
I1
tp5172
Rp5173
(I3
S'|'
p5174
NNNI33
I1
I0
tp5175
bS'https:\\/\\/vine.co\\/v\\/Opm39rXtgEJ'
p5176
tp5177
Rp5178
I657
sg1
(g2
(S'S33'
p5179
I0
I1
tp5180
Rp5181
(I3
S'|'
p5182
NNNI33
I1
I0
tp5183
bS'https:\\/\\/vine.co\\/v\\/O6gHdtYPqij'
p5184
tp5185
Rp5186
I658
sg1
(g2
(S'S33'
p5187
I0
I1
tp5188
Rp5189
(I3
S'|'
p5190
NNNI33
I1
I0
tp5191
bS'https:\\/\\/vine.co\\/v\\/itJT9rTDEez'
p5192
tp5193
Rp5194
I659
sg1
(g2
(S'S33'
p5195
I0
I1
tp5196
Rp5197
(I3
S'|'
p5198
NNNI33
I1
I0
tp5199
bS'https:\\/\\/vine.co\\/v\\/izTTL6eljJr'
p5200
tp5201
Rp5202
I661
sg1
(g2
(S'S33'
p5203
I0
I1
tp5204
Rp5205
(I3
S'|'
p5206
NNNI33
I1
I0
tp5207
bS'https:\\/\\/vine.co\\/v\\/inahIWx0Xte'
p5208
tp5209
Rp5210
I662
sg1
(g2
(S'S33'
p5211
I0
I1
tp5212
Rp5213
(I3
S'|'
p5214
NNNI33
I1
I0
tp5215
bS'https:\\/\\/vine.co\\/v\\/OqtApAMa0KZ'
p5216
tp5217
Rp5218
I663
sg1
(g2
(S'S33'
p5219
I0
I1
tp5220
Rp5221
(I3
S'|'
p5222
NNNI33
I1
I0
tp5223
bS'https:\\/\\/vine.co\\/v\\/i9epKVn0Kgg'
p5224
tp5225
Rp5226
I664
sg1
(g2
(S'S33'
p5227
I0
I1
tp5228
Rp5229
(I3
S'|'
p5230
NNNI33
I1
I0
tp5231
bS'https:\\/\\/vine.co\\/v\\/OPq02dpidBM'
p5232
tp5233
Rp5234
I962
sg1
(g2
(S'S33'
p5235
I0
I1
tp5236
Rp5237
(I3
S'|'
p5238
NNNI33
I1
I0
tp5239
bS'https:\\/\\/vine.co\\/v\\/euEpIVegiIx'
p5240
tp5241
Rp5242
I871
sg1
(g2
(S'S33'
p5243
I0
I1
tp5244
Rp5245
(I3
S'|'
p5246
NNNI33
I1
I0
tp5247
bS'https:\\/\\/vine.co\\/v\\/hwDTIXvwz2m'
p5248
tp5249
Rp5250
I666
sg1
(g2
(S'S33'
p5251
I0
I1
tp5252
Rp5253
(I3
S'|'
p5254
NNNI33
I1
I0
tp5255
bS'https:\\/\\/vine.co\\/v\\/OqZz2qtBDQ6'
p5256
tp5257
Rp5258
I668
sg1
(g2
(S'S33'
p5259
I0
I1
tp5260
Rp5261
(I3
S'|'
p5262
NNNI33
I1
I0
tp5263
bS'https:\\/\\/vine.co\\/v\\/imWVK9UxbXK'
p5264
tp5265
Rp5266
I628
sg1
(g2
(S'S33'
p5267
I0
I1
tp5268
Rp5269
(I3
S'|'
p5270
NNNI33
I1
I0
tp5271
bS'https:\\/\\/vine.co\\/v\\/MhK1JOZ3IqD'
p5272
tp5273
Rp5274
I883
sg1
(g2
(S'S33'
p5275
I0
I1
tp5276
Rp5277
(I3
S'|'
p5278
NNNI33
I1
I0
tp5279
bS'https:\\/\\/vine.co\\/v\\/htiYj1LZPD9'
p5280
tp5281
Rp5282
I670
sg1
(g2
(S'S33'
p5283
I0
I1
tp5284
Rp5285
(I3
S'|'
p5286
NNNI33
I1
I0
tp5287
bS'https:\\/\\/vine.co\\/v\\/e3bIijmz3lJ'
p5288
tp5289
Rp5290
I671
sg1
(g2
(S'S33'
p5291
I0
I1
tp5292
Rp5293
(I3
S'|'
p5294
NNNI33
I1
I0
tp5295
bS'https:\\/\\/vine.co\\/v\\/OQ3UJBKI16v'
p5296
tp5297
Rp5298
I672
sg1
(g2
(S'S33'
p5299
I0
I1
tp5300
Rp5301
(I3
S'|'
p5302
NNNI33
I1
I0
tp5303
bS'https:\\/\\/vine.co\\/v\\/Ot6V2ullBbX'
p5304
tp5305
Rp5306
I673
sg1
(g2
(S'S33'
p5307
I0
I1
tp5308
Rp5309
(I3
S'|'
p5310
NNNI33
I1
I0
tp5311
bS'https:\\/\\/vine.co\\/v\\/MEVam0HPVYJ'
p5312
tp5313
Rp5314
I623
sg1
(g2
(S'S33'
p5315
I0
I1
tp5316
Rp5317
(I3
S'|'
p5318
NNNI33
I1
I0
tp5319
bS'https:\\/\\/vine.co\\/v\\/OrWH6j5vKlE'
p5320
tp5321
Rp5322
I1030
sg1
(g2
(S'S33'
p5323
I0
I1
tp5324
Rp5325
(I3
S'|'
p5326
NNNI33
I1
I0
tp5327
bS'https:\\/\\/vine.co\\/v\\/5em559QOuzW'
p5328
tp5329
Rp5330
I675
sg1
(g2
(S'S33'
p5331
I0
I1
tp5332
Rp5333
(I3
S'|'
p5334
NNNI33
I1
I0
tp5335
bS'https:\\/\\/vine.co\\/v\\/eMn7FjnVVYl'
p5336
tp5337
Rp5338
I677
sg1
(g2
(S'S33'
p5339
I0
I1
tp5340
Rp5341
(I3
S'|'
p5342
NNNI33
I1
I0
tp5343
bS'https:\\/\\/vine.co\\/v\\/MTYOvJmp7db'
p5344
tp5345
Rp5346
I678
sg1
(g2
(S'S33'
p5347
I0
I1
tp5348
Rp5349
(I3
S'|'
p5350
NNNI33
I1
I0
tp5351
bS'https:\\/\\/vine.co\\/v\\/Oe3xxYLZUxp'
p5352
tp5353
Rp5354
I679
sg1
(g2
(S'S33'
p5355
I0
I1
tp5356
Rp5357
(I3
S'|'
p5358
NNNI33
I1
I0
tp5359
bS'https:\\/\\/vine.co\\/v\\/i1Tgu6ujFPU'
p5360
tp5361
Rp5362
I680
sg1
(g2
(S'S33'
p5363
I0
I1
tp5364
Rp5365
(I3
S'|'
p5366
NNNI33
I1
I0
tp5367
bS'https:\\/\\/vine.co\\/v\\/OWxBJdxaaJV'
p5368
tp5369
Rp5370
I681
sg1
(g2
(S'S33'
p5371
I0
I1
tp5372
Rp5373
(I3
S'|'
p5374
NNNI33
I1
I0
tp5375
bS'https:\\/\\/vine.co\\/v\\/inVtemLt9tE'
p5376
tp5377
Rp5378
I876
sg1
(g2
(S'S33'
p5379
I0
I1
tp5380
Rp5381
(I3
S'|'
p5382
NNNI33
I1
I0
tp5383
bS'https:\\/\\/vine.co\\/v\\/OIX1aLOvAQu'
p5384
tp5385
Rp5386
I683
sg1
(g2
(S'S33'
p5387
I0
I1
tp5388
Rp5389
(I3
S'|'
p5390
NNNI33
I1
I0
tp5391
bS'https:\\/\\/vine.co\\/v\\/eId2Ub9wBrz'
p5392
tp5393
Rp5394
I684
sg1
(g2
(S'S33'
p5395
I0
I1
tp5396
Rp5397
(I3
S'|'
p5398
NNNI33
I1
I0
tp5399
bS'https:\\/\\/vine.co\\/v\\/MhDmhqui2eU'
p5400
tp5401
Rp5402
I685
sg1
(g2
(S'S33'
p5403
I0
I1
tp5404
Rp5405
(I3
S'|'
p5406
NNNI33
I1
I0
tp5407
bS'https:\\/\\/vine.co\\/v\\/ihaiEhqMALh'
p5408
tp5409
Rp5410
I686
sg1
(g2
(S'S33'
p5411
I0
I1
tp5412
Rp5413
(I3
S'|'
p5414
NNNI33
I1
I0
tp5415
bS'https:\\/\\/vine.co\\/v\\/OYvqQWtdKQO'
p5416
tp5417
Rp5418
I667
sg1
(g2
(S'S33'
p5419
I0
I1
tp5420
Rp5421
(I3
S'|'
p5422
NNNI33
I1
I0
tp5423
bS'https:\\/\\/vine.co\\/v\\/epKtbL2an31'
p5424
tp5425
Rp5426
I688
sg1
(g2
(S'S33'
p5427
I0
I1
tp5428
Rp5429
(I3
S'|'
p5430
NNNI33
I1
I0
tp5431
bS'https:\\/\\/vine.co\\/v\\/5rurAq5erB0'
p5432
tp5433
Rp5434
I689
sg1
(g2
(S'S33'
p5435
I0
I1
tp5436
Rp5437
(I3
S'|'
p5438
NNNI33
I1
I0
tp5439
bS'https:\\/\\/vine.co\\/v\\/iu176EO1p5m'
p5440
tp5441
Rp5442
I655
sg1
(g2
(S'S33'
p5443
I0
I1
tp5444
Rp5445
(I3
S'|'
p5446
NNNI33
I1
I0
tp5447
bS'https:\\/\\/vine.co\\/v\\/i5ugzUHZLvd'
p5448
tp5449
Rp5450
I691
sg1
(g2
(S'S33'
p5451
I0
I1
tp5452
Rp5453
(I3
S'|'
p5454
NNNI33
I1
I0
tp5455
bS'https:\\/\\/vine.co\\/v\\/ixmbFeYrVqM'
p5456
tp5457
Rp5458
I692
sg1
(g2
(S'S33'
p5459
I0
I1
tp5460
Rp5461
(I3
S'|'
p5462
NNNI33
I1
I0
tp5463
bS'https:\\/\\/vine.co\\/v\\/iEebwQh3DIJ'
p5464
tp5465
Rp5466
I693
sg1
(g2
(S'S33'
p5467
I0
I1
tp5468
Rp5469
(I3
S'|'
p5470
NNNI33
I1
I0
tp5471
bS'https:\\/\\/vine.co\\/v\\/MIJU21eaKAL'
p5472
tp5473
Rp5474
I694
sg1
(g2
(S'S33'
p5475
I0
I1
tp5476
Rp5477
(I3
S'|'
p5478
NNNI33
I1
I0
tp5479
bS'https:\\/\\/vine.co\\/v\\/Mlq3bpQw3jW'
p5480
tp5481
Rp5482
I695
sg1
(g2
(S'S33'
p5483
I0
I1
tp5484
Rp5485
(I3
S'|'
p5486
NNNI33
I1
I0
tp5487
bS'https:\\/\\/vine.co\\/v\\/iXqx72ddE5Q'
p5488
tp5489
Rp5490
I696
sg1
(g2
(S'S33'
p5491
I0
I1
tp5492
Rp5493
(I3
S'|'
p5494
NNNI33
I1
I0
tp5495
bS'https:\\/\\/vine.co\\/v\\/5h02VU6hMWO'
p5496
tp5497
Rp5498
I697
sg1
(g2
(S'S33'
p5499
I0
I1
tp5500
Rp5501
(I3
S'|'
p5502
NNNI33
I1
I0
tp5503
bS'https:\\/\\/vine.co\\/v\\/iDW7XgVDPVY'
p5504
tp5505
Rp5506
I698
sg1
(g2
(S'S33'
p5507
I0
I1
tp5508
Rp5509
(I3
S'|'
p5510
NNNI33
I1
I0
tp5511
bS'https:\\/\\/vine.co\\/v\\/OlUvpKHIBFm'
p5512
tp5513
Rp5514
I343
sg1
(g2
(S'S33'
p5515
I0
I1
tp5516
Rp5517
(I3
S'|'
p5518
NNNI33
I1
I0
tp5519
bS'https:\\/\\/vine.co\\/v\\/egdqE7ipLtZ'
p5520
tp5521
Rp5522
I358
sg1
(g2
(S'S33'
p5523
I0
I1
tp5524
Rp5525
(I3
S'|'
p5526
NNNI33
I1
I0
tp5527
bS'https:\\/\\/vine.co\\/v\\/OauDHQUdqWu'
p5528
tp5529
Rp5530
I701
sg1
(g2
(S'S33'
p5531
I0
I1
tp5532
Rp5533
(I3
S'|'
p5534
NNNI33
I1
I0
tp5535
bS'https:\\/\\/vine.co\\/v\\/5HLmuXX3JYL'
p5536
tp5537
Rp5538
I702
sg1
(g2
(S'S33'
p5539
I0
I1
tp5540
Rp5541
(I3
S'|'
p5542
NNNI33
I1
I0
tp5543
bS'https:\\/\\/vine.co\\/v\\/MTzDUlh9i0D'
p5544
tp5545
Rp5546
I703
sg1
(g2
(S'S33'
p5547
I0
I1
tp5548
Rp5549
(I3
S'|'
p5550
NNNI33
I1
I0
tp5551
bS'https:\\/\\/vine.co\\/v\\/OUwnaOzv7UD'
p5552
tp5553
Rp5554
I704
sg1
(g2
(S'S33'
p5555
I0
I1
tp5556
Rp5557
(I3
S'|'
p5558
NNNI33
I1
I0
tp5559
bS'https:\\/\\/vine.co\\/v\\/MTW0DgBVtJe'
p5560
tp5561
Rp5562
I705
sg1
(g2
(S'S33'
p5563
I0
I1
tp5564
Rp5565
(I3
S'|'
p5566
NNNI33
I1
I0
tp5567
bS'https:\\/\\/vine.co\\/v\\/ObvabKrVx15'
p5568
tp5569
Rp5570
I706
sg1
(g2
(S'S33'
p5571
I0
I1
tp5572
Rp5573
(I3
S'|'
p5574
NNNI33
I1
I0
tp5575
bS'https:\\/\\/vine.co\\/v\\/exUEbezAQuB'
p5576
tp5577
Rp5578
I707
sg1
(g2
(S'S33'
p5579
I0
I1
tp5580
Rp5581
(I3
S'|'
p5582
NNNI33
I1
I0
tp5583
bS'https:\\/\\/vine.co\\/v\\/5wuMrHm00zb'
p5584
tp5585
Rp5586
I708
sg1
(g2
(S'S33'
p5587
I0
I1
tp5588
Rp5589
(I3
S'|'
p5590
NNNI33
I1
I0
tp5591
bS'https:\\/\\/vine.co\\/v\\/edzBEY1ajUa'
p5592
tp5593
Rp5594
I710
sg1
(g2
(S'S33'
p5595
I0
I1
tp5596
Rp5597
(I3
S'|'
p5598
NNNI33
I1
I0
tp5599
bS'https:\\/\\/vine.co\\/v\\/egLUu0EYzMZ'
p5600
tp5601
Rp5602
I712
sg1
(g2
(S'S33'
p5603
I0
I1
tp5604
Rp5605
(I3
S'|'
p5606
NNNI33
I1
I0
tp5607
bS'https:\\/\\/vine.co\\/v\\/h13Ar7W7BXp'
p5608
tp5609
Rp5610
I713
sg1
(g2
(S'S33'
p5611
I0
I1
tp5612
Rp5613
(I3
S'|'
p5614
NNNI33
I1
I0
tp5615
bS'https:\\/\\/vine.co\\/v\\/e3l6Qe7nYZH'
p5616
tp5617
Rp5618
I714
sg1
(g2
(S'S33'
p5619
I0
I1
tp5620
Rp5621
(I3
S'|'
p5622
NNNI33
I1
I0
tp5623
bS'https:\\/\\/vine.co\\/v\\/5euBbDJxIlD'
p5624
tp5625
Rp5626
I800
sg1
(g2
(S'S33'
p5627
I0
I1
tp5628
Rp5629
(I3
S'|'
p5630
NNNI33
I1
I0
tp5631
bS'https:\\/\\/vine.co\\/v\\/i06uLHvM9KT'
p5632
tp5633
Rp5634
I717
sg1
(g2
(S'S33'
p5635
I0
I1
tp5636
Rp5637
(I3
S'|'
p5638
NNNI33
I1
I0
tp5639
bS'https:\\/\\/vine.co\\/v\\/eUXxn20mKZW'
p5640
tp5641
Rp5642
I718
sg1
(g2
(S'S33'
p5643
I0
I1
tp5644
Rp5645
(I3
S'|'
p5646
NNNI33
I1
I0
tp5647
bS'https:\\/\\/vine.co\\/v\\/htIK3mnuHuv'
p5648
tp5649
Rp5650
I719
sg1
(g2
(S'S33'
p5651
I0
I1
tp5652
Rp5653
(I3
S'|'
p5654
NNNI33
I1
I0
tp5655
bS'https:\\/\\/vine.co\\/v\\/5gLhv7xiEUO'
p5656
tp5657
Rp5658
I720
sg1
(g2
(S'S33'
p5659
I0
I1
tp5660
Rp5661
(I3
S'|'
p5662
NNNI33
I1
I0
tp5663
bS'https:\\/\\/vine.co\\/v\\/exwJ0iLpmxd'
p5664
tp5665
Rp5666
I721
sg1
(g2
(S'S33'
p5667
I0
I1
tp5668
Rp5669
(I3
S'|'
p5670
NNNI33
I1
I0
tp5671
bS'https:\\/\\/vine.co\\/v\\/MeOqph3MFaJ'
p5672
tp5673
Rp5674
I722
sg1
(g2
(S'S33'
p5675
I0
I1
tp5676
Rp5677
(I3
S'|'
p5678
NNNI33
I1
I0
tp5679
bS'https:\\/\\/vine.co\\/v\\/hLmL2HHnzP2'
p5680
tp5681
Rp5682
I724
sg1
(g2
(S'S33'
p5683
I0
I1
tp5684
Rp5685
(I3
S'|'
p5686
NNNI33
I1
I0
tp5687
bS'https:\\/\\/vine.co\\/v\\/MHAggKdz0qQ'
p5688
tp5689
Rp5690
I561
sg1
(g2
(S'S33'
p5691
I0
I1
tp5692
Rp5693
(I3
S'|'
p5694
NNNI33
I1
I0
tp5695
bS'https:\\/\\/vine.co\\/v\\/MgX5aDgKFmx'
p5696
tp5697
Rp5698
I725
sg1
(g2
(S'S33'
p5699
I0
I1
tp5700
Rp5701
(I3
S'|'
p5702
NNNI33
I1
I0
tp5703
bS'https:\\/\\/vine.co\\/v\\/ObIwOwXBLJX'
p5704
tp5705
Rp5706
I726
sg1
(g2
(S'S33'
p5707
I0
I1
tp5708
Rp5709
(I3
S'|'
p5710
NNNI33
I1
I0
tp5711
bS'https:\\/\\/vine.co\\/v\\/OMqDr7r0bKI'
p5712
tp5713
Rp5714
I687
sg1
(g2
(S'S33'
p5715
I0
I1
tp5716
Rp5717
(I3
S'|'
p5718
NNNI33
I1
I0
tp5719
bS'https:\\/\\/vine.co\\/v\\/i2tULOglJhj'
p5720
tp5721
Rp5722
I728
sg1
(g2
(S'S33'
p5723
I0
I1
tp5724
Rp5725
(I3
S'|'
p5726
NNNI33
I1
I0
tp5727
bS'https:\\/\\/vine.co\\/v\\/iWlzKupLOJP'
p5728
tp5729
Rp5730
I723
sg1
(g2
(S'S33'
p5731
I0
I1
tp5732
Rp5733
(I3
S'|'
p5734
NNNI33
I1
I0
tp5735
bS'https:\\/\\/vine.co\\/v\\/eFEM1DwZhmz'
p5736
tp5737
Rp5738
I730
sg1
(g2
(S'S33'
p5739
I0
I1
tp5740
Rp5741
(I3
S'|'
p5742
NNNI33
I1
I0
tp5743
bS'https:\\/\\/vine.co\\/v\\/ev9vIuJK9Qe'
p5744
tp5745
Rp5746
I731
sg1
(g2
(S'S33'
p5747
I0
I1
tp5748
Rp5749
(I3
S'|'
p5750
NNNI33
I1
I0
tp5751
bS'https:\\/\\/vine.co\\/v\\/5eF1jbXPwtP'
p5752
tp5753
Rp5754
I732
sg1
(g2
(S'S33'
p5755
I0
I1
tp5756
Rp5757
(I3
S'|'
p5758
NNNI33
I1
I0
tp5759
bS'https:\\/\\/vine.co\\/v\\/eYTxxmxDT9l'
p5760
tp5761
Rp5762
I733
sg1
(g2
(S'S33'
p5763
I0
I1
tp5764
Rp5765
(I3
S'|'
p5766
NNNI33
I1
I0
tp5767
bS'https:\\/\\/vine.co\\/v\\/eEx0AxTwxL2'
p5768
tp5769
Rp5770
I735
sg1
(g2
(S'S33'
p5771
I0
I1
tp5772
Rp5773
(I3
S'|'
p5774
NNNI33
I1
I0
tp5775
bS'https:\\/\\/vine.co\\/v\\/51YwuEWYQ2X'
p5776
tp5777
Rp5778
I736
sg1
(g2
(S'S33'
p5779
I0
I1
tp5780
Rp5781
(I3
S'|'
p5782
NNNI33
I1
I0
tp5783
bS'https:\\/\\/vine.co\\/v\\/hZEgQqIdz5d'
p5784
tp5785
Rp5786
I737
sg1
(g2
(S'S33'
p5787
I0
I1
tp5788
Rp5789
(I3
S'|'
p5790
NNNI33
I1
I0
tp5791
bS'https:\\/\\/vine.co\\/v\\/OKtw2uF7TYO'
p5792
tp5793
Rp5794
I738
sg1
(g2
(S'S33'
p5795
I0
I1
tp5796
Rp5797
(I3
S'|'
p5798
NNNI33
I1
I0
tp5799
bS'https:\\/\\/vine.co\\/v\\/MgjIgnz3nIh'
p5800
tp5801
Rp5802
I739
sg1
(g2
(S'S33'
p5803
I0
I1
tp5804
Rp5805
(I3
S'|'
p5806
NNNI33
I1
I0
tp5807
bS'https:\\/\\/vine.co\\/v\\/idWMIlQDIMT'
p5808
tp5809
Rp5810
I740
sg1
(g2
(S'S33'
p5811
I0
I1
tp5812
Rp5813
(I3
S'|'
p5814
NNNI33
I1
I0
tp5815
bS'https:\\/\\/vine.co\\/v\\/hJMdQeB7vtQ'
p5816
tp5817
Rp5818
I741
sg1
(g2
(S'S33'
p5819
I0
I1
tp5820
Rp5821
(I3
S'|'
p5822
NNNI33
I1
I0
tp5823
bS'https:\\/\\/vine.co\\/v\\/ehLUIMreaDj'
p5824
tp5825
Rp5826
I742
sg1
(g2
(S'S33'
p5827
I0
I1
tp5828
Rp5829
(I3
S'|'
p5830
NNNI33
I1
I0
tp5831
bS'https:\\/\\/vine.co\\/v\\/5Z6Xp10lJ07'
p5832
tp5833
Rp5834
I743
sg1
(g2
(S'S33'
p5835
I0
I1
tp5836
Rp5837
(I3
S'|'
p5838
NNNI33
I1
I0
tp5839
bS'https:\\/\\/vine.co\\/v\\/eQ6maY79ibu'
p5840
tp5841
Rp5842
I744
sg1
(g2
(S'S33'
p5843
I0
I1
tp5844
Rp5845
(I3
S'|'
p5846
NNNI33
I1
I0
tp5847
bS'https:\\/\\/vine.co\\/v\\/edU9nUwJWip'
p5848
tp5849
Rp5850
I690
sg1
(g2
(S'S33'
p5851
I0
I1
tp5852
Rp5853
(I3
S'|'
p5854
NNNI33
I1
I0
tp5855
bS'https:\\/\\/vine.co\\/v\\/iXEZxmWVD10'
p5856
tp5857
Rp5858
I746
sg1
(g2
(S'S33'
p5859
I0
I1
tp5860
Rp5861
(I3
S'|'
p5862
NNNI33
I1
I0
tp5863
bS'https:\\/\\/vine.co\\/v\\/MOQgZ9jUAi0'
p5864
tp5865
Rp5866
I747
sg1
(g2
(S'S33'
p5867
I0
I1
tp5868
Rp5869
(I3
S'|'
p5870
NNNI33
I1
I0
tp5871
bS'https:\\/\\/vine.co\\/v\\/5Xap5AxuFnD'
p5872
tp5873
Rp5874
I748
sg1
(g2
(S'S33'
p5875
I0
I1
tp5876
Rp5877
(I3
S'|'
p5878
NNNI33
I1
I0
tp5879
bS'https:\\/\\/vine.co\\/v\\/OQWYxElH9OQ'
p5880
tp5881
Rp5882
I749
sg1
(g2
(S'S33'
p5883
I0
I1
tp5884
Rp5885
(I3
S'|'
p5886
NNNI33
I1
I0
tp5887
bS'https:\\/\\/vine.co\\/v\\/e66mv0FqaJV'
p5888
tp5889
Rp5890
I750
sg1
(g2
(S'S33'
p5891
I0
I1
tp5892
Rp5893
(I3
S'|'
p5894
NNNI33
I1
I0
tp5895
bS'https:\\/\\/vine.co\\/v\\/ieKpLnAWMJM'
p5896
tp5897
Rp5898
I1012
sg1
(g2
(S'S33'
p5899
I0
I1
tp5900
Rp5901
(I3
S'|'
p5902
NNNI33
I1
I0
tp5903
bS'https:\\/\\/vine.co\\/v\\/O5YTY7YL551'
p5904
tp5905
Rp5906
I751
sg1
(g2
(S'S33'
p5907
I0
I1
tp5908
Rp5909
(I3
S'|'
p5910
NNNI33
I1
I0
tp5911
bS'https:\\/\\/vine.co\\/v\\/MpXumH7O3Lw'
p5912
tp5913
Rp5914
I752
sg1
(g2
(S'S33'
p5915
I0
I1
tp5916
Rp5917
(I3
S'|'
p5918
NNNI33
I1
I0
tp5919
bS'https:\\/\\/vine.co\\/v\\/blMn3lrP5be'
p5920
tp5921
Rp5922
I753
sg1
(g2
(S'S33'
p5923
I0
I1
tp5924
Rp5925
(I3
S'|'
p5926
NNNI33
I1
I0
tp5927
bS'https:\\/\\/vine.co\\/v\\/eIXejbQ2utM'
p5928
tp5929
Rp5930
I754
sg1
(g2
(S'S33'
p5931
I0
I1
tp5932
Rp5933
(I3
S'|'
p5934
NNNI33
I1
I0
tp5935
bS'https:\\/\\/vine.co\\/v\\/ea5TBHpVL1m'
p5936
tp5937
Rp5938
I579
sg1
(g2
(S'S33'
p5939
I0
I1
tp5940
Rp5941
(I3
S'|'
p5942
NNNI33
I1
I0
tp5943
bS'https:\\/\\/vine.co\\/v\\/MpPDauhxhnp'
p5944
tp5945
Rp5946
I564
sg1
(g2
(S'S33'
p5947
I0
I1
tp5948
Rp5949
(I3
S'|'
p5950
NNNI33
I1
I0
tp5951
bS'https:\\/\\/vine.co\\/v\\/eIwXmQwiKbu'
p5952
tp5953
Rp5954
I578
sg1
(g2
(S'S33'
p5955
I0
I1
tp5956
Rp5957
(I3
S'|'
p5958
NNNI33
I1
I0
tp5959
bS'https:\\/\\/vine.co\\/v\\/O7FJ2UKilV2'
p5960
tp5961
Rp5962
I346
sg1
(g2
(S'S33'
p5963
I0
I1
tp5964
Rp5965
(I3
S'|'
p5966
NNNI33
I1
I0
tp5967
bS'https:\\/\\/vine.co\\/v\\/eT02UBLdtAP'
p5968
tp5969
Rp5970
I7
sg1
(g2
(S'S33'
p5971
I0
I1
tp5972
Rp5973
(I3
S'|'
p5974
NNNI33
I1
I0
tp5975
bS'https:\\/\\/vine.co\\/v\\/O2Y6KFKn1JH'
p5976
tp5977
Rp5978
I760
sg1
(g2
(S'S33'
p5979
I0
I1
tp5980
Rp5981
(I3
S'|'
p5982
NNNI33
I1
I0
tp5983
bS'https:\\/\\/vine.co\\/v\\/MYv6pW6LXgJ'
p5984
tp5985
Rp5986
I761
sg1
(g2
(S'S33'
p5987
I0
I1
tp5988
Rp5989
(I3
S'|'
p5990
NNNI33
I1
I0
tp5991
bS'https:\\/\\/vine.co\\/v\\/iMDDKW2L2JE'
p5992
tp5993
Rp5994
I762
sg1
(g2
(S'S33'
p5995
I0
I1
tp5996
Rp5997
(I3
S'|'
p5998
NNNI33
I1
I0
tp5999
bS'https:\\/\\/vine.co\\/v\\/i2aVEK2lAHV'
p6000
tp6001
Rp6002
I763
sg1
(g2
(S'S33'
p6003
I0
I1
tp6004
Rp6005
(I3
S'|'
p6006
NNNI33
I1
I0
tp6007
bS'https:\\/\\/vine.co\\/v\\/ize7jtnWdVA'
p6008
tp6009
Rp6010
I393
sg1
(g2
(S'S33'
p6011
I0
I1
tp6012
Rp6013
(I3
S'|'
p6014
NNNI33
I1
I0
tp6015
bS'https:\\/\\/vine.co\\/v\\/imPLY05qtAX'
p6016
tp6017
Rp6018
I765
sg1
(g2
(S'S33'
p6019
I0
I1
tp6020
Rp6021
(I3
S'|'
p6022
NNNI33
I1
I0
tp6023
bS'https:\\/\\/vine.co\\/v\\/57EVA2tTDj1'
p6024
tp6025
Rp6026
I63
sg1
(g2
(S'S33'
p6027
I0
I1
tp6028
Rp6029
(I3
S'|'
p6030
NNNI33
I1
I0
tp6031
bS'https:\\/\\/vine.co\\/v\\/eQ6w63Pdr5w'
p6032
tp6033
Rp6034
I767
sg1
(g2
(S'S33'
p6035
I0
I1
tp6036
Rp6037
(I3
S'|'
p6038
NNNI33
I1
I0
tp6039
bS'https:\\/\\/vine.co\\/v\\/MH0IJwlJFVz'
p6040
tp6041
Rp6042
I768
sg1
(g2
(S'S33'
p6043
I0
I1
tp6044
Rp6045
(I3
S'|'
p6046
NNNI33
I1
I0
tp6047
bS'https:\\/\\/vine.co\\/v\\/eJ2wxTxJQPu'
p6048
tp6049
Rp6050
I769
sg1
(g2
(S'S33'
p6051
I0
I1
tp6052
Rp6053
(I3
S'|'
p6054
NNNI33
I1
I0
tp6055
bS'https:\\/\\/vine.co\\/v\\/O7vbFb370rM'
p6056
tp6057
Rp6058
I770
sg1
(g2
(S'S33'
p6059
I0
I1
tp6060
Rp6061
(I3
S'|'
p6062
NNNI33
I1
I0
tp6063
bS'https:\\/\\/vine.co\\/v\\/MjpK9pmKvzu'
p6064
tp6065
Rp6066
I771
sg1
(g2
(S'S33'
p6067
I0
I1
tp6068
Rp6069
(I3
S'|'
p6070
NNNI33
I1
I0
tp6071
bS'https:\\/\\/vine.co\\/v\\/MiAMY06TDUY'
p6072
tp6073
Rp6074
I316
sg1
(g2
(S'S33'
p6075
I0
I1
tp6076
Rp6077
(I3
S'|'
p6078
NNNI33
I1
I0
tp6079
bS'https:\\/\\/vine.co\\/v\\/eMDOQ7bBUKv'
p6080
tp6081
Rp6082
I773
sg1
(g2
(S'S33'
p6083
I0
I1
tp6084
Rp6085
(I3
S'|'
p6086
NNNI33
I1
I0
tp6087
bS'https:\\/\\/vine.co\\/v\\/epYxTHBd3Ez'
p6088
tp6089
Rp6090
I774
sg1
(g2
(S'S33'
p6091
I0
I1
tp6092
Rp6093
(I3
S'|'
p6094
NNNI33
I1
I0
tp6095
bS'https:\\/\\/vine.co\\/v\\/i70pYBK6Ztu'
p6096
tp6097
Rp6098
I775
sg1
(g2
(S'S33'
p6099
I0
I1
tp6100
Rp6101
(I3
S'|'
p6102
NNNI33
I1
I0
tp6103
bS'https:\\/\\/vine.co\\/v\\/h5aDaFthX6O'
p6104
tp6105
Rp6106
I776
sg1
(g2
(S'S33'
p6107
I0
I1
tp6108
Rp6109
(I3
S'|'
p6110
NNNI33
I1
I0
tp6111
bS'https:\\/\\/vine.co\\/v\\/eiTFKeL7aMz'
p6112
tp6113
Rp6114
I125
sg1
(g2
(S'S33'
p6115
I0
I1
tp6116
Rp6117
(I3
S'|'
p6118
NNNI33
I1
I0
tp6119
bS'https:\\/\\/vine.co\\/v\\/eHHVb9Wmmb3'
p6120
tp6121
Rp6122
I778
sg1
(g2
(S'S33'
p6123
I0
I1
tp6124
Rp6125
(I3
S'|'
p6126
NNNI33
I1
I0
tp6127
bS'https:\\/\\/vine.co\\/v\\/MeLM6FOHTKY'
p6128
tp6129
Rp6130
I758
sg1
(g2
(S'S33'
p6131
I0
I1
tp6132
Rp6133
(I3
S'|'
p6134
NNNI33
I1
I0
tp6135
bS'https:\\/\\/vine.co\\/v\\/eWU0VqMZEFq'
p6136
tp6137
Rp6138
I780
sg1
(g2
(S'S33'
p6139
I0
I1
tp6140
Rp6141
(I3
S'|'
p6142
NNNI33
I1
I0
tp6143
bS'https:\\/\\/vine.co\\/v\\/hZnJYvEjTub'
p6144
tp6145
Rp6146
I781
sg1
(g2
(S'S33'
p6147
I0
I1
tp6148
Rp6149
(I3
S'|'
p6150
NNNI33
I1
I0
tp6151
bS'https:\\/\\/vine.co\\/v\\/eOB0WTYxLrp'
p6152
tp6153
Rp6154
I160
sg1
(g2
(S'S33'
p6155
I0
I1
tp6156
Rp6157
(I3
S'|'
p6158
NNNI33
I1
I0
tp6159
bS'https:\\/\\/vine.co\\/v\\/MDLu6FpptFh'
p6160
tp6161
Rp6162
I676
sg1
(g2
(S'S33'
p6163
I0
I1
tp6164
Rp6165
(I3
S'|'
p6166
NNNI33
I1
I0
tp6167
bS'https:\\/\\/vine.co\\/v\\/M6ppzJ506eO'
p6168
tp6169
Rp6170
I784
sg1
(g2
(S'S33'
p6171
I0
I1
tp6172
Rp6173
(I3
S'|'
p6174
NNNI33
I1
I0
tp6175
bS'https:\\/\\/vine.co\\/v\\/iY1ht6a9Pgl'
p6176
tp6177
Rp6178
I785
sg1
(g2
(S'S33'
p6179
I0
I1
tp6180
Rp6181
(I3
S'|'
p6182
NNNI33
I1
I0
tp6183
bS'https:\\/\\/vine.co\\/v\\/MtZ2xhIjDPe'
p6184
tp6185
Rp6186
I786
sg1
(g2
(S'S33'
p6187
I0
I1
tp6188
Rp6189
(I3
S'|'
p6190
NNNI33
I1
I0
tp6191
bS'https:\\/\\/vine.co\\/v\\/MAOigK3MYJJ'
p6192
tp6193
Rp6194
I787
sg1
(g2
(S'S33'
p6195
I0
I1
tp6196
Rp6197
(I3
S'|'
p6198
NNNI33
I1
I0
tp6199
bS'https:\\/\\/vine.co\\/v\\/iVY6uMTVKmZ'
p6200
tp6201
Rp6202
I788
sg1
(g2
(S'S33'
p6203
I0
I1
tp6204
Rp6205
(I3
S'|'
p6206
NNNI33
I1
I0
tp6207
bS'https:\\/\\/vine.co\\/v\\/MTFn7EPvtnd'
p6208
tp6209
Rp6210
I789
sg1
(g2
(S'S33'
p6211
I0
I1
tp6212
Rp6213
(I3
S'|'
p6214
NNNI33
I1
I0
tp6215
bS'https:\\/\\/vine.co\\/v\\/eUm1bYVvWj6'
p6216
tp6217
Rp6218
I207
sg1
(g2
(S'S33'
p6219
I0
I1
tp6220
Rp6221
(I3
S'|'
p6222
NNNI33
I1
I0
tp6223
bS'https:\\/\\/vine.co\\/v\\/Oe0E5lavOdY'
p6224
tp6225
Rp6226
I791
sg1
(g2
(S'S33'
p6227
I0
I1
tp6228
Rp6229
(I3
S'|'
p6230
NNNI33
I1
I0
tp6231
bS'https:\\/\\/vine.co\\/v\\/iEggaEOiLO3'
p6232
tp6233
Rp6234
I792
sg1
(g2
(S'S33'
p6235
I0
I1
tp6236
Rp6237
(I3
S'|'
p6238
NNNI33
I1
I0
tp6239
bS'https:\\/\\/vine.co\\/v\\/itWXd25tDDO'
p6240
tp6241
Rp6242
I793
sg1
(g2
(S'S33'
p6243
I0
I1
tp6244
Rp6245
(I3
S'|'
p6246
NNNI33
I1
I0
tp6247
bS'https:\\/\\/vine.co\\/v\\/hjHnwAxOPv7'
p6248
tp6249
Rp6250
I794
sg1
(g2
(S'S33'
p6251
I0
I1
tp6252
Rp6253
(I3
S'|'
p6254
NNNI33
I1
I0
tp6255
bS'https:\\/\\/vine.co\\/v\\/O07A2B2xdzQ'
p6256
tp6257
Rp6258
I782
sg1
(g2
(S'S33'
p6259
I0
I1
tp6260
Rp6261
(I3
S'|'
p6262
NNNI33
I1
I0
tp6263
bS'https:\\/\\/vine.co\\/v\\/OehYeZhOObJ'
p6264
tp6265
Rp6266
I150
sg1
(g2
(S'S33'
p6267
I0
I1
tp6268
Rp6269
(I3
S'|'
p6270
NNNI33
I1
I0
tp6271
bS'https:\\/\\/vine.co\\/v\\/evPXEPpTYDx'
p6272
tp6273
Rp6274
I699
sg1
(g2
(S'S33'
p6275
I0
I1
tp6276
Rp6277
(I3
S'|'
p6278
NNNI33
I1
I0
tp6279
bS'https:\\/\\/vine.co\\/v\\/Ovnlenti7VF'
p6280
tp6281
Rp6282
I798
sg1
(g2
(S'S33'
p6283
I0
I1
tp6284
Rp6285
(I3
S'|'
p6286
NNNI33
I1
I0
tp6287
bS'https:\\/\\/vine.co\\/v\\/OFvFlQj2dud'
p6288
tp6289
Rp6290
I243
sg1
(g2
(S'S33'
p6291
I0
I1
tp6292
Rp6293
(I3
S'|'
p6294
NNNI33
I1
I0
tp6295
bS'https:\\/\\/vine.co\\/v\\/OPit7Dm2Mdl'
p6296
tp6297
Rp6298
I801
sg1
(g2
(S'S33'
p6299
I0
I1
tp6300
Rp6301
(I3
S'|'
p6302
NNNI33
I1
I0
tp6303
bS'https:\\/\\/vine.co\\/v\\/eLLFIQ2ivMe'
p6304
tp6305
Rp6306
I802
sg1
(g2
(S'S33'
p6307
I0
I1
tp6308
Rp6309
(I3
S'|'
p6310
NNNI33
I1
I0
tp6311
bS'https:\\/\\/vine.co\\/v\\/hd1Vgh17hTl'
p6312
tp6313
Rp6314
I700
sg1
(g2
(S'S33'
p6315
I0
I1
tp6316
Rp6317
(I3
S'|'
p6318
NNNI33
I1
I0
tp6319
bS'https:\\/\\/vine.co\\/v\\/5gXA7DpLKab'
p6320
tp6321
Rp6322
I411
sg1
(g2
(S'S33'
p6323
I0
I1
tp6324
Rp6325
(I3
S'|'
p6326
NNNI33
I1
I0
tp6327
bS'https:\\/\\/vine.co\\/v\\/hErEFu0hqPz'
p6328
tp6329
Rp6330
I805
sg1
(g2
(S'S33'
p6331
I0
I1
tp6332
Rp6333
(I3
S'|'
p6334
NNNI33
I1
I0
tp6335
bS'https:\\/\\/vine.co\\/v\\/iTizj7EMD51'
p6336
tp6337
Rp6338
I806
sg1
(g2
(S'S33'
p6339
I0
I1
tp6340
Rp6341
(I3
S'|'
p6342
NNNI33
I1
I0
tp6343
bS'https:\\/\\/vine.co\\/v\\/eX1UDDUTxwe'
p6344
tp6345
Rp6346
I269
sg1
(g2
(S'S33'
p6347
I0
I1
tp6348
Rp6349
(I3
S'|'
p6350
NNNI33
I1
I0
tp6351
bS'https:\\/\\/vine.co\\/v\\/iYqwM56KA9M'
p6352
tp6353
Rp6354
I1020
sg1
(g2
(S'S33'
p6355
I0
I1
tp6356
Rp6357
(I3
S'|'
p6358
NNNI33
I1
I0
tp6359
bS'https:\\/\\/vine.co\\/v\\/ieKI9rebnEB'
p6360
tp6361
Rp6362
I808
sg1
(g2
(S'S33'
p6363
I0
I1
tp6364
Rp6365
(I3
S'|'
p6366
NNNI33
I1
I0
tp6367
bS'https:\\/\\/vine.co\\/v\\/edxIz2wQK12'
p6368
tp6369
Rp6370
I301
sg1
(g2
(S'S33'
p6371
I0
I1
tp6372
Rp6373
(I3
S'|'
p6374
NNNI33
I1
I0
tp6375
bS'https:\\/\\/vine.co\\/v\\/Mw7DhdqOluU'
p6376
tp6377
Rp6378
I810
sg1
(g2
(S'S33'
p6379
I0
I1
tp6380
Rp6381
(I3
S'|'
p6382
NNNI33
I1
I0
tp6383
bS'https:\\/\\/vine.co\\/v\\/enhjKXxjPrT'
p6384
tp6385
Rp6386
I306
sg1
(g2
(S'S33'
p6387
I0
I1
tp6388
Rp6389
(I3
S'|'
p6390
NNNI33
I1
I0
tp6391
bS'https:\\/\\/vine.co\\/v\\/ixHz5Wbdxdi'
p6392
tp6393
Rp6394
I812
sg1
(g2
(S'S33'
p6395
I0
I1
tp6396
Rp6397
(I3
S'|'
p6398
NNNI33
I1
I0
tp6399
bS'https:\\/\\/vine.co\\/v\\/5nDnZwWqZtt'
p6400
tp6401
Rp6402
I813
sg1
(g2
(S'S33'
p6403
I0
I1
tp6404
Rp6405
(I3
S'|'
p6406
NNNI33
I1
I0
tp6407
bS'https:\\/\\/vine.co\\/v\\/e93tnJuO6El'
p6408
tp6409
Rp6410
I142
sg1
(g2
(S'S33'
p6411
I0
I1
tp6412
Rp6413
(I3
S'|'
p6414
NNNI33
I1
I0
tp6415
bS'https:\\/\\/vine.co\\/v\\/OZgYvJwq997'
p6416
tp6417
Rp6418
I816
sg1
(g2
(S'S33'
p6419
I0
I1
tp6420
Rp6421
(I3
S'|'
p6422
NNNI33
I1
I0
tp6423
bS'https:\\/\\/vine.co\\/v\\/h3vZhUQauP9'
p6424
tp6425
Rp6426
I817
sg1
(g2
(S'S33'
p6427
I0
I1
tp6428
Rp6429
(I3
S'|'
p6430
NNNI33
I1
I0
tp6431
bS'https:\\/\\/vine.co\\/v\\/MUqMgnvmvF2'
p6432
tp6433
Rp6434
I818
sg1
(g2
(S'S33'
p6435
I0
I1
tp6436
Rp6437
(I3
S'|'
p6438
NNNI33
I1
I0
tp6439
bS'https:\\/\\/vine.co\\/v\\/5hVLaj5Um5A'
p6440
tp6441
Rp6442
I285
sg1
(g2
(S'S33'
p6443
I0
I1
tp6444
Rp6445
(I3
S'|'
p6446
NNNI33
I1
I0
tp6447
bS'https:\\/\\/vine.co\\/v\\/ibJ0WrFgaja'
p6448
tp6449
Rp6450
I820
sg1
(g2
(S'S33'
p6451
I0
I1
tp6452
Rp6453
(I3
S'|'
p6454
NNNI33
I1
I0
tp6455
bS'https:\\/\\/vine.co\\/v\\/erdE7lh7mDH'
p6456
tp6457
Rp6458
I161
sg1
(g2
(S'S33'
p6459
I0
I1
tp6460
Rp6461
(I3
S'|'
p6462
NNNI33
I1
I0
tp6463
bS'https:\\/\\/vine.co\\/v\\/5wuEMD2Qjgg'
p6464
tp6465
Rp6466
I937
sg1
(g2
(S'S33'
p6467
I0
I1
tp6468
Rp6469
(I3
S'|'
p6470
NNNI33
I1
I0
tp6471
bS'https:\\/\\/vine.co\\/v\\/hzxpjd6b9d9'
p6472
tp6473
Rp6474
I24
sg1
(g2
(S'S33'
p6475
I0
I1
tp6476
Rp6477
(I3
S'|'
p6478
NNNI33
I1
I0
tp6479
bS'https:\\/\\/vine.co\\/v\\/5qI3aAHwIaa'
p6480
tp6481
Rp6482
I824
sg1
(g2
(S'S33'
p6483
I0
I1
tp6484
Rp6485
(I3
S'|'
p6486
NNNI33
I1
I0
tp6487
bS'https:\\/\\/vine.co\\/v\\/eWPVi0j951Z'
p6488
tp6489
Rp6490
I412
sg1
(g2
(S'S33'
p6491
I0
I1
tp6492
Rp6493
(I3
S'|'
p6494
NNNI33
I1
I0
tp6495
bS'https:\\/\\/vine.co\\/v\\/MmOj7uzVp07'
p6496
tp6497
Rp6498
I532
sg1
(g2
(S'S33'
p6499
I0
I1
tp6500
Rp6501
(I3
S'|'
p6502
NNNI33
I1
I0
tp6503
bS'https:\\/\\/vine.co\\/v\\/eWO3QZ3Vavz'
p6504
tp6505
Rp6506
I556
sg1
(g2
(S'S33'
p6507
I0
I1
tp6508
Rp6509
(I3
S'|'
p6510
NNNI33
I1
I0
tp6511
bS'https:\\/\\/vine.co\\/v\\/O3Z5pzXMwxQ'
p6512
tp6513
Rp6514
I827
sg1
(g2
(S'S33'
p6515
I0
I1
tp6516
Rp6517
(I3
S'|'
p6518
NNNI33
I1
I0
tp6519
bS'https:\\/\\/vine.co\\/v\\/5BApbKjXi3B'
p6520
tp6521
Rp6522
I87
sg1
(g2
(S'S33'
p6523
I0
I1
tp6524
Rp6525
(I3
S'|'
p6526
NNNI33
I1
I0
tp6527
bS'https:\\/\\/vine.co\\/v\\/OwgaBMwh7Yr'
p6528
tp6529
Rp6530
I829
sg1
(g2
(S'S33'
p6531
I0
I1
tp6532
Rp6533
(I3
S'|'
p6534
NNNI33
I1
I0
tp6535
bS'https:\\/\\/vine.co\\/v\\/iuWzaTdzmbP'
p6536
tp6537
Rp6538
I830
sg1
(g2
(S'S33'
p6539
I0
I1
tp6540
Rp6541
(I3
S'|'
p6542
NNNI33
I1
I0
tp6543
bS'https:\\/\\/vine.co\\/v\\/hrmhEadEJnt'
p6544
tp6545
Rp6546
I899
sg1
(g2
(S'S33'
p6547
I0
I1
tp6548
Rp6549
(I3
S'|'
p6550
NNNI33
I1
I0
tp6551
bS'https:\\/\\/vine.co\\/v\\/O1qthKOQ13A'
p6552
tp6553
Rp6554
I832
sg1
(g2
(S'S33'
p6555
I0
I1
tp6556
Rp6557
(I3
S'|'
p6558
NNNI33
I1
I0
tp6559
bS'https:\\/\\/vine.co\\/v\\/ilZdezYt3Tj'
p6560
tp6561
Rp6562
I833
sg1
(g2
(S'S33'
p6563
I0
I1
tp6564
Rp6565
(I3
S'|'
p6566
NNNI33
I1
I0
tp6567
bS'https:\\/\\/vine.co\\/v\\/OQIgtZhU1uQ'
p6568
tp6569
Rp6570
I834
sg1
(g2
(S'S33'
p6571
I0
I1
tp6572
Rp6573
(I3
S'|'
p6574
NNNI33
I1
I0
tp6575
bS'https:\\/\\/vine.co\\/v\\/exJKIxZOvQ9'
p6576
tp6577
Rp6578
I835
sg1
(g2
(S'S33'
p6579
I0
I1
tp6580
Rp6581
(I3
S'|'
p6582
NNNI33
I1
I0
tp6583
bS'https:\\/\\/vine.co\\/v\\/O6hqn3HI77I'
p6584
tp6585
Rp6586
I444
sg1
(g2
(S'S33'
p6587
I0
I1
tp6588
Rp6589
(I3
S'|'
p6590
NNNI33
I1
I0
tp6591
bS'https:\\/\\/vine.co\\/v\\/MPAJit1mD0l'
p6592
tp6593
Rp6594
I837
sg1
(g2
(S'S33'
p6595
I0
I1
tp6596
Rp6597
(I3
S'|'
p6598
NNNI33
I1
I0
tp6599
bS'https:\\/\\/vine.co\\/v\\/hteQnv7lEnB'
p6600
tp6601
Rp6602
I838
sg1
(g2
(S'S33'
p6603
I0
I1
tp6604
Rp6605
(I3
S'|'
p6606
NNNI33
I1
I0
tp6607
bS'https:\\/\\/vine.co\\/v\\/h6XFjexK1rV'
p6608
tp6609
Rp6610
I967
sg1
(g2
(S'S33'
p6611
I0
I1
tp6612
Rp6613
(I3
S'|'
p6614
NNNI33
I1
I0
tp6615
bS'https:\\/\\/vine.co\\/v\\/hQ7pj2PY5lT'
p6616
tp6617
Rp6618
I839
sg1
(g2
(S'S33'
p6619
I0
I1
tp6620
Rp6621
(I3
S'|'
p6622
NNNI33
I1
I0
tp6623
bS'https:\\/\\/vine.co\\/v\\/5pOdriTr1tx'
p6624
tp6625
Rp6626
I840
sg1
(g2
(S'S33'
p6627
I0
I1
tp6628
Rp6629
(I3
S'|'
p6630
NNNI33
I1
I0
tp6631
bS'https:\\/\\/vine.co\\/v\\/eHpLJ9FAZFX'
p6632
tp6633
Rp6634
I841
sg1
(g2
(S'S33'
p6635
I0
I1
tp6636
Rp6637
(I3
S'|'
p6638
NNNI33
I1
I0
tp6639
bS'https:\\/\\/vine.co\\/v\\/eQODmbJmg5E'
p6640
tp6641
Rp6642
I842
sg1
(g2
(S'S33'
p6643
I0
I1
tp6644
Rp6645
(I3
S'|'
p6646
NNNI33
I1
I0
tp6647
bS'https:\\/\\/vine.co\\/v\\/OIZdhtPax7L'
p6648
tp6649
Rp6650
I844
sg1
(g2
(S'S33'
p6651
I0
I1
tp6652
Rp6653
(I3
S'|'
p6654
NNNI33
I1
I0
tp6655
bS'https:\\/\\/vine.co\\/v\\/iOHYvzMlKuD'
p6656
tp6657
Rp6658
I845
sg1
(g2
(S'S33'
p6659
I0
I1
tp6660
Rp6661
(I3
S'|'
p6662
NNNI33
I1
I0
tp6663
bS'https:\\/\\/vine.co\\/v\\/OjjBIwQTbXM'
p6664
tp6665
Rp6666
I846
sg1
(g2
(S'S33'
p6667
I0
I1
tp6668
Rp6669
(I3
S'|'
p6670
NNNI33
I1
I0
tp6671
bS'https:\\/\\/vine.co\\/v\\/iwl0HjTB2VD'
p6672
tp6673
Rp6674
I848
sg1
(g2
(S'S33'
p6675
I0
I1
tp6676
Rp6677
(I3
S'|'
p6678
NNNI33
I1
I0
tp6679
bS'https:\\/\\/vine.co\\/v\\/OpaXJOZleuF'
p6680
tp6681
Rp6682
I849
sg1
(g2
(S'S33'
p6683
I0
I1
tp6684
Rp6685
(I3
S'|'
p6686
NNNI33
I1
I0
tp6687
bS'https:\\/\\/vine.co\\/v\\/ee5ABmiXUKh'
p6688
tp6689
Rp6690
I850
sg1
(g2
(S'S33'
p6691
I0
I1
tp6692
Rp6693
(I3
S'|'
p6694
NNNI33
I1
I0
tp6695
bS'https:\\/\\/vine.co\\/v\\/eQ9MIndUEpQ'
p6696
tp6697
Rp6698
I851
sg1
(g2
(S'S33'
p6699
I0
I1
tp6700
Rp6701
(I3
S'|'
p6702
NNNI33
I1
I0
tp6703
bS'https:\\/\\/vine.co\\/v\\/OevDL0QOAX5'
p6704
tp6705
Rp6706
I852
sg1
(g2
(S'S33'
p6707
I0
I1
tp6708
Rp6709
(I3
S'|'
p6710
NNNI33
I1
I0
tp6711
bS'https:\\/\\/vine.co\\/v\\/imJWaPWb9et'
p6712
tp6713
Rp6714
I853
sg1
(g2
(S'S33'
p6715
I0
I1
tp6716
Rp6717
(I3
S'|'
p6718
NNNI33
I1
I0
tp6719
bS'https:\\/\\/vine.co\\/v\\/eU59mHr0b5P'
p6720
tp6721
Rp6722
I854
sg1
(g2
(S'S33'
p6723
I0
I1
tp6724
Rp6725
(I3
S'|'
p6726
NNNI33
I1
I0
tp6727
bS'https:\\/\\/vine.co\\/v\\/eYQzOMPibil'
p6728
tp6729
Rp6730
I855
sg1
(g2
(S'S33'
p6731
I0
I1
tp6732
Rp6733
(I3
S'|'
p6734
NNNI33
I1
I0
tp6735
bS'https:\\/\\/vine.co\\/v\\/itbM0KegIDl'
p6736
tp6737
Rp6738
I99
sg1
(g2
(S'S33'
p6739
I0
I1
tp6740
Rp6741
(I3
S'|'
p6742
NNNI33
I1
I0
tp6743
bS'https:\\/\\/vine.co\\/v\\/eYz7hJhA9ij'
p6744
tp6745
Rp6746
I1097
sg1
(g2
(S'S33'
p6747
I0
I1
tp6748
Rp6749
(I3
S'|'
p6750
NNNI33
I1
I0
tp6751
bS'https:\\/\\/vine.co\\/v\\/5H9O3mdFrPp'
p6752
tp6753
Rp6754
I858
sg1
(g2
(S'S33'
p6755
I0
I1
tp6756
Rp6757
(I3
S'|'
p6758
NNNI33
I1
I0
tp6759
bS'https:\\/\\/vine.co\\/v\\/iKPTghqF0LA'
p6760
tp6761
Rp6762
I859
sg1
(g2
(S'S33'
p6763
I0
I1
tp6764
Rp6765
(I3
S'|'
p6766
NNNI33
I1
I0
tp6767
bS'https:\\/\\/vine.co\\/v\\/iitqz3Tmlep'
p6768
tp6769
Rp6770
I860
sg1
(g2
(S'S33'
p6771
I0
I1
tp6772
Rp6773
(I3
S'|'
p6774
NNNI33
I1
I0
tp6775
bS'https:\\/\\/vine.co\\/v\\/eYIwwQeiriJ'
p6776
tp6777
Rp6778
I861
sg1
(g2
(S'S33'
p6779
I0
I1
tp6780
Rp6781
(I3
S'|'
p6782
NNNI33
I1
I0
tp6783
bS'https:\\/\\/vine.co\\/v\\/iiugxJLB6Ow'
p6784
tp6785
Rp6786
I862
sg1
(g2
(S'S33'
p6787
I0
I1
tp6788
Rp6789
(I3
S'|'
p6790
NNNI33
I1
I0
tp6791
bS'https:\\/\\/vine.co\\/v\\/eLgDY6V2vdF'
p6792
tp6793
Rp6794
I863
sg1
(g2
(S'S33'
p6795
I0
I1
tp6796
Rp6797
(I3
S'|'
p6798
NNNI33
I1
I0
tp6799
bS'https:\\/\\/vine.co\\/v\\/iA5h1DLzq91'
p6800
tp6801
Rp6802
I716
sg1
(g2
(S'S33'
p6803
I0
I1
tp6804
Rp6805
(I3
S'|'
p6806
NNNI33
I1
I0
tp6807
bS'https:\\/\\/vine.co\\/v\\/51MEDbnizUJ'
p6808
tp6809
Rp6810
I626
sg1
(g2
(S'S33'
p6811
I0
I1
tp6812
Rp6813
(I3
S'|'
p6814
NNNI33
I1
I0
tp6815
bS'https:\\/\\/vine.co\\/v\\/5zjb9TEXaBu'
p6816
tp6817
Rp6818
I866
sg1
(g2
(S'S33'
p6819
I0
I1
tp6820
Rp6821
(I3
S'|'
p6822
NNNI33
I1
I0
tp6823
bS'https:\\/\\/vine.co\\/v\\/iMYL6jmuE6g'
p6824
tp6825
Rp6826
I330
sg1
(g2
(S'S33'
p6827
I0
I1
tp6828
Rp6829
(I3
S'|'
p6830
NNNI33
I1
I0
tp6831
bS'https:\\/\\/vine.co\\/v\\/eKFOPZmdmUj'
p6832
tp6833
Rp6834
I868
sg1
(g2
(S'S33'
p6835
I0
I1
tp6836
Rp6837
(I3
S'|'
p6838
NNNI33
I1
I0
tp6839
bS'https:\\/\\/vine.co\\/v\\/OYFneX7pOYA'
p6840
tp6841
Rp6842
I1058
sg1
(g2
(S'S33'
p6843
I0
I1
tp6844
Rp6845
(I3
S'|'
p6846
NNNI33
I1
I0
tp6847
bS'https:\\/\\/vine.co\\/v\\/hg1KLm3epeJ'
p6848
tp6849
Rp6850
I869
sg1
(g2
(S'S33'
p6851
I0
I1
tp6852
Rp6853
(I3
S'|'
p6854
NNNI33
I1
I0
tp6855
bS'https:\\/\\/vine.co\\/v\\/OBqHwdijP3P'
p6856
tp6857
Rp6858
I870
sg1
(g2
(S'S33'
p6859
I0
I1
tp6860
Rp6861
(I3
S'|'
p6862
NNNI33
I1
I0
tp6863
bS'https:\\/\\/vine.co\\/v\\/5zuxVVKrO5u'
p6864
tp6865
Rp6866
I665
sg1
(g2
(S'S33'
p6867
I0
I1
tp6868
Rp6869
(I3
S'|'
p6870
NNNI33
I1
I0
tp6871
bS'https:\\/\\/vine.co\\/v\\/OOxhPqhTvwZ'
p6872
tp6873
Rp6874
I873
sg1
(g2
(S'S33'
p6875
I0
I1
tp6876
Rp6877
(I3
S'|'
p6878
NNNI33
I1
I0
tp6879
bS'https:\\/\\/vine.co\\/v\\/hqBwVDAmpTm'
p6880
tp6881
Rp6882
I874
sg1
(g2
(S'S33'
p6883
I0
I1
tp6884
Rp6885
(I3
S'|'
p6886
NNNI33
I1
I0
tp6887
bS'https:\\/\\/vine.co\\/v\\/5hzKzvr1BO9'
p6888
tp6889
Rp6890
I875
sg1
(g2
(S'S33'
p6891
I0
I1
tp6892
Rp6893
(I3
S'|'
p6894
NNNI33
I1
I0
tp6895
bS'https:\\/\\/vine.co\\/v\\/hZrqebwVVWM'
p6896
tp6897
Rp6898
I682
sg1
(g2
(S'S33'
p6899
I0
I1
tp6900
Rp6901
(I3
S'|'
p6902
NNNI33
I1
I0
tp6903
bS'https:\\/\\/vine.co\\/v\\/iApgWYJE0OO'
p6904
tp6905
Rp6906
I877
sg1
(g2
(S'S33'
p6907
I0
I1
tp6908
Rp6909
(I3
S'|'
p6910
NNNI33
I1
I0
tp6911
bS'https:\\/\\/vine.co\\/v\\/MgUZ3KFphEv'
p6912
tp6913
Rp6914
I711
sg1
(g2
(S'S33'
p6915
I0
I1
tp6916
Rp6917
(I3
S'|'
p6918
NNNI33
I1
I0
tp6919
bS'https:\\/\\/vine.co\\/v\\/Orw22rqKp5b'
p6920
tp6921
Rp6922
I879
sg1
(g2
(S'S33'
p6923
I0
I1
tp6924
Rp6925
(I3
S'|'
p6926
NNNI33
I1
I0
tp6927
bS'https:\\/\\/vine.co\\/v\\/ePVKKx7WJ0Z'
p6928
tp6929
Rp6930
I880
sg1
(g2
(S'S33'
p6931
I0
I1
tp6932
Rp6933
(I3
S'|'
p6934
NNNI33
I1
I0
tp6935
bS'https:\\/\\/vine.co\\/v\\/eWz90B1MX7A'
p6936
tp6937
Rp6938
I881
sg1
(g2
(S'S33'
p6939
I0
I1
tp6940
Rp6941
(I3
S'|'
p6942
NNNI33
I1
I0
tp6943
bS'https:\\/\\/vine.co\\/v\\/eHLEtdxO7Yq'
p6944
tp6945
Rp6946
I882
sg1
(g2
(S'S33'
p6947
I0
I1
tp6948
Rp6949
(I3
S'|'
p6950
NNNI33
I1
I0
tp6951
bS'https:\\/\\/vine.co\\/v\\/eFpVdbHr9Fi'
p6952
tp6953
Rp6954
I815
sg1
(g2
(S'S33'
p6955
I0
I1
tp6956
Rp6957
(I3
S'|'
p6958
NNNI33
I1
I0
tp6959
bS'https:\\/\\/vine.co\\/v\\/MQQMM5IqQMd'
p6960
tp6961
Rp6962
I884
sg1
(g2
(S'S33'
p6963
I0
I1
tp6964
Rp6965
(I3
S'|'
p6966
NNNI33
I1
I0
tp6967
bS'https:\\/\\/vine.co\\/v\\/hPieTe7unOg'
p6968
tp6969
Rp6970
I734
sg1
(g2
(S'S33'
p6971
I0
I1
tp6972
Rp6973
(I3
S'|'
p6974
NNNI33
I1
I0
tp6975
bS'https:\\/\\/vine.co\\/v\\/hQ026ezL6w1'
p6976
tp6977
Rp6978
I886
sg1
(g2
(S'S33'
p6979
I0
I1
tp6980
Rp6981
(I3
S'|'
p6982
NNNI33
I1
I0
tp6983
bS'https:\\/\\/vine.co\\/v\\/OdiFKizniE9'
p6984
tp6985
Rp6986
I887
sg1
(g2
(S'S33'
p6987
I0
I1
tp6988
Rp6989
(I3
S'|'
p6990
NNNI33
I1
I0
tp6991
bS'https:\\/\\/vine.co\\/v\\/irMQ0jwBEjE'
p6992
tp6993
Rp6994
I888
sg1
(g2
(S'S33'
p6995
I0
I1
tp6996
Rp6997
(I3
S'|'
p6998
NNNI33
I1
I0
tp6999
bS'https:\\/\\/vine.co\\/v\\/OglQIArKJBq'
p7000
tp7001
Rp7002
I889
sg1
(g2
(S'S33'
p7003
I0
I1
tp7004
Rp7005
(I3
S'|'
p7006
NNNI33
I1
I0
tp7007
bS'https:\\/\\/vine.co\\/v\\/iBjTMbD0Ej2'
p7008
tp7009
Rp7010
I890
sg1
(g2
(S'S33'
p7011
I0
I1
tp7012
Rp7013
(I3
S'|'
p7014
NNNI33
I1
I0
tp7015
bS'https:\\/\\/vine.co\\/v\\/igWT9HBUnXp'
p7016
tp7017
Rp7018
I891
sg1
(g2
(S'S33'
p7019
I0
I1
tp7020
Rp7021
(I3
S'|'
p7022
NNNI33
I1
I0
tp7023
bS'https:\\/\\/vine.co\\/v\\/iw57MuUnP7e'
p7024
tp7025
Rp7026
I1100
sg1
(g2
(S'S33'
p7027
I0
I1
tp7028
Rp7029
(I3
S'|'
p7030
NNNI33
I1
I0
tp7031
bS'https:\\/\\/vine.co\\/v\\/MMunvnTeudw'
p7032
tp7033
Rp7034
I893
sg1
(g2
(S'S33'
p7035
I0
I1
tp7036
Rp7037
(I3
S'|'
p7038
NNNI33
I1
I0
tp7039
bS'https:\\/\\/vine.co\\/v\\/iu5dpId9KhE'
p7040
tp7041
Rp7042
I894
sg1
(g2
(S'S33'
p7043
I0
I1
tp7044
Rp7045
(I3
S'|'
p7046
NNNI33
I1
I0
tp7047
bS'https:\\/\\/vine.co\\/v\\/OUIB67w2jli'
p7048
tp7049
Rp7050
I895
sg1
(g2
(S'S33'
p7051
I0
I1
tp7052
Rp7053
(I3
S'|'
p7054
NNNI33
I1
I0
tp7055
bS'https:\\/\\/vine.co\\/v\\/M63OPln7rX1'
p7056
tp7057
Rp7058
I896
sg1
(g2
(S'S33'
p7059
I0
I1
tp7060
Rp7061
(I3
S'|'
p7062
NNNI33
I1
I0
tp7063
bS'https:\\/\\/vine.co\\/v\\/51QrnWbpPbj'
p7064
tp7065
Rp7066
I856
sg1
(g2
(S'S33'
p7067
I0
I1
tp7068
Rp7069
(I3
S'|'
p7070
NNNI33
I1
I0
tp7071
bS'https:\\/\\/vine.co\\/v\\/hZ5bxiQUMM6'
p7072
tp7073
Rp7074
I897
sg1
(g2
(S'S33'
p7075
I0
I1
tp7076
Rp7077
(I3
S'|'
p7078
NNNI33
I1
I0
tp7079
bS'https:\\/\\/vine.co\\/v\\/ig701zWiHMH'
p7080
tp7081
Rp7082
I1083
sg1
(g2
(S'S33'
p7083
I0
I1
tp7084
Rp7085
(I3
S'|'
p7086
NNNI33
I1
I0
tp7087
bS'https:\\/\\/vine.co\\/v\\/MtpTA6g1D3V'
p7088
tp7089
Rp7090
I488
sg1
(g2
(S'S33'
p7091
I0
I1
tp7092
Rp7093
(I3
S'|'
p7094
NNNI33
I1
I0
tp7095
bS'https:\\/\\/vine.co\\/v\\/iFArFUmm5B2'
p7096
tp7097
Rp7098
I831
sg1
(g2
(S'S33'
p7099
I0
I1
tp7100
Rp7101
(I3
S'|'
p7102
NNNI33
I1
I0
tp7103
bS'https:\\/\\/vine.co\\/v\\/5OjPYXK2Qwv'
p7104
tp7105
Rp7106
I900
sg1
(g2
(S'S33'
p7107
I0
I1
tp7108
Rp7109
(I3
S'|'
p7110
NNNI33
I1
I0
tp7111
bS'https:\\/\\/vine.co\\/v\\/eZTKdwtuirz'
p7112
tp7113
Rp7114
I901
sg1
(g2
(S'S33'
p7115
I0
I1
tp7116
Rp7117
(I3
S'|'
p7118
NNNI33
I1
I0
tp7119
bS'https:\\/\\/vine.co\\/v\\/eVBQAvt2DJZ'
p7120
tp7121
Rp7122
I902
sg1
(g2
(S'S33'
p7123
I0
I1
tp7124
Rp7125
(I3
S'|'
p7126
NNNI33
I1
I0
tp7127
bS'https:\\/\\/vine.co\\/v\\/iMnxlJpdhTT'
p7128
tp7129
Rp7130
I903
sg1
(g2
(S'S33'
p7131
I0
I1
tp7132
Rp7133
(I3
S'|'
p7134
NNNI33
I1
I0
tp7135
bS'https:\\/\\/vine.co\\/v\\/eTIJe7UDx00'
p7136
tp7137
Rp7138
I983
sg1
(g2
(S'S33'
p7139
I0
I1
tp7140
Rp7141
(I3
S'|'
p7142
NNNI33
I1
I0
tp7143
bS'https:\\/\\/vine.co\\/v\\/OB3MMdpt6Q5'
p7144
tp7145
Rp7146
I905
sg1
(g2
(S'S33'
p7147
I0
I1
tp7148
Rp7149
(I3
S'|'
p7150
NNNI33
I1
I0
tp7151
bS'https:\\/\\/vine.co\\/v\\/iu5M16U3FUD'
p7152
tp7153
Rp7154
I319
sg1
(g2
(S'S33'
p7155
I0
I1
tp7156
Rp7157
(I3
S'|'
p7158
NNNI33
I1
I0
tp7159
bS'https:\\/\\/vine.co\\/v\\/iMmpvViWB1Q'
p7160
tp7161
Rp7162
I907
sg1
(g2
(S'S33'
p7163
I0
I1
tp7164
Rp7165
(I3
S'|'
p7166
NNNI33
I1
I0
tp7167
bS'https:\\/\\/vine.co\\/v\\/OdmBVLebliH'
p7168
tp7169
Rp7170
I908
sg1
(g2
(S'S33'
p7171
I0
I1
tp7172
Rp7173
(I3
S'|'
p7174
NNNI33
I1
I0
tp7175
bS'https:\\/\\/vine.co\\/v\\/iedXXMHwFee'
p7176
tp7177
Rp7178
I909
sg1
(g2
(S'S33'
p7179
I0
I1
tp7180
Rp7181
(I3
S'|'
p7182
NNNI33
I1
I0
tp7183
bS'https:\\/\\/vine.co\\/v\\/5JA2wPuazAY'
p7184
tp7185
Rp7186
I910
sg1
(g2
(S'S33'
p7187
I0
I1
tp7188
Rp7189
(I3
S'|'
p7190
NNNI33
I1
I0
tp7191
bS'https:\\/\\/vine.co\\/v\\/hqELaiT62HW'
p7192
tp7193
Rp7194
I911
sg1
(g2
(S'S33'
p7195
I0
I1
tp7196
Rp7197
(I3
S'|'
p7198
NNNI33
I1
I0
tp7199
bS'https:\\/\\/vine.co\\/v\\/eYYdJgP5tAI'
p7200
tp7201
Rp7202
I912
sg1
(g2
(S'S33'
p7203
I0
I1
tp7204
Rp7205
(I3
S'|'
p7206
NNNI33
I1
I0
tp7207
bS'https:\\/\\/vine.co\\/v\\/5p7jxnBQrd9'
p7208
tp7209
Rp7210
I913
sg1
(g2
(S'S33'
p7211
I0
I1
tp7212
Rp7213
(I3
S'|'
p7214
NNNI33
I1
I0
tp7215
bS'https:\\/\\/vine.co\\/v\\/ia1hPjnrra6'
p7216
tp7217
Rp7218
I914
sg1
(g2
(S'S33'
p7219
I0
I1
tp7220
Rp7221
(I3
S'|'
p7222
NNNI33
I1
I0
tp7223
bS'https:\\/\\/vine.co\\/v\\/iFqeEiJggE3'
p7224
tp7225
Rp7226
I915
sg1
(g2
(S'S33'
p7227
I0
I1
tp7228
Rp7229
(I3
S'|'
p7230
NNNI33
I1
I0
tp7231
bS'https:\\/\\/vine.co\\/v\\/5eLguj7AWYH'
p7232
tp7233
Rp7234
I916
sg1
(g2
(S'S33'
p7235
I0
I1
tp7236
Rp7237
(I3
S'|'
p7238
NNNI33
I1
I0
tp7239
bS'https:\\/\\/vine.co\\/v\\/hOBJleBdMn2'
p7240
tp7241
Rp7242
I917
sg1
(g2
(S'S33'
p7243
I0
I1
tp7244
Rp7245
(I3
S'|'
p7246
NNNI33
I1
I0
tp7247
bS'https:\\/\\/vine.co\\/v\\/OtPTrEYQa6V'
p7248
tp7249
Rp7250
I1103
sg1
(g2
(S'S33'
p7251
I0
I1
tp7252
Rp7253
(I3
S'|'
p7254
NNNI33
I1
I0
tp7255
bS'https:\\/\\/vine.co\\/v\\/b0rZx1MUIem'
p7256
tp7257
Rp7258
I919
sg1
(g2
(S'S33'
p7259
I0
I1
tp7260
Rp7261
(I3
S'|'
p7262
NNNI33
I1
I0
tp7263
bS'https:\\/\\/vine.co\\/v\\/iEeU3VE5iP0'
p7264
tp7265
Rp7266
I920
sg1
(g2
(S'S33'
p7267
I0
I1
tp7268
Rp7269
(I3
S'|'
p7270
NNNI33
I1
I0
tp7271
bS'https:\\/\\/vine.co\\/v\\/hHDYAmtPBYV'
p7272
tp7273
Rp7274
I921
sg1
(g2
(S'S33'
p7275
I0
I1
tp7276
Rp7277
(I3
S'|'
p7278
NNNI33
I1
I0
tp7279
bS'https:\\/\\/vine.co\\/v\\/iD6nrYjmMFD'
p7280
tp7281
Rp7282
I922
sg1
(g2
(S'S33'
p7283
I0
I1
tp7284
Rp7285
(I3
S'|'
p7286
NNNI33
I1
I0
tp7287
bS'https:\\/\\/vine.co\\/v\\/h9a05iMOajL'
p7288
tp7289
Rp7290
I923
sg1
(g2
(S'S33'
p7291
I0
I1
tp7292
Rp7293
(I3
S'|'
p7294
NNNI33
I1
I0
tp7295
bS'https:\\/\\/vine.co\\/v\\/eHZdJwdWaKY'
p7296
tp7297
Rp7298
I924
sg1
(g2
(S'S33'
p7299
I0
I1
tp7300
Rp7301
(I3
S'|'
p7302
NNNI33
I1
I0
tp7303
bS'https:\\/\\/vine.co\\/v\\/iX9rTMh5wtD'
p7304
tp7305
Rp7306
I925
sg1
(g2
(S'S33'
p7307
I0
I1
tp7308
Rp7309
(I3
S'|'
p7310
NNNI33
I1
I0
tp7311
bS'https:\\/\\/vine.co\\/v\\/iJq7IYPt2q0'
p7312
tp7313
Rp7314
I926
sg1
(g2
(S'S33'
p7315
I0
I1
tp7316
Rp7317
(I3
S'|'
p7318
NNNI33
I1
I0
tp7319
bS'https:\\/\\/vine.co\\/v\\/hWvOwnWPgr6'
p7320
tp7321
Rp7322
I927
sg1
(g2
(S'S33'
p7323
I0
I1
tp7324
Rp7325
(I3
S'|'
p7326
NNNI33
I1
I0
tp7327
bS'https:\\/\\/vine.co\\/v\\/5HjbDmdhru6'
p7328
tp7329
Rp7330
I928
sg1
(g2
(S'S33'
p7331
I0
I1
tp7332
Rp7333
(I3
S'|'
p7334
NNNI33
I1
I0
tp7335
bS'https:\\/\\/vine.co\\/v\\/hQite3r9zFK'
p7336
tp7337
Rp7338
I929
sg1
(g2
(S'S33'
p7339
I0
I1
tp7340
Rp7341
(I3
S'|'
p7342
NNNI33
I1
I0
tp7343
bS'https:\\/\\/vine.co\\/v\\/i1vzT9ZPTWH'
p7344
tp7345
Rp7346
I930
sg1
(g2
(S'S33'
p7347
I0
I1
tp7348
Rp7349
(I3
S'|'
p7350
NNNI33
I1
I0
tp7351
bS'https:\\/\\/vine.co\\/v\\/MM2wnxWHPY0'
p7352
tp7353
Rp7354
I166
sg1
(g2
(S'S33'
p7355
I0
I1
tp7356
Rp7357
(I3
S'|'
p7358
NNNI33
I1
I0
tp7359
bS'https:\\/\\/vine.co\\/v\\/MEVM5p6bgEO'
p7360
tp7361
Rp7362
I932
sg1
(g2
(S'S33'
p7363
I0
I1
tp7364
Rp7365
(I3
S'|'
p7366
NNNI33
I1
I0
tp7367
bS'https:\\/\\/vine.co\\/v\\/5XU3xegAIgx'
p7368
tp7369
Rp7370
I933
sg1
(g2
(S'S33'
p7371
I0
I1
tp7372
Rp7373
(I3
S'|'
p7374
NNNI33
I1
I0
tp7375
bS'https:\\/\\/vine.co\\/v\\/5zTDWMTIjqF'
p7376
tp7377
Rp7378
I934
sg1
(g2
(S'S33'
p7379
I0
I1
tp7380
Rp7381
(I3
S'|'
p7382
NNNI33
I1
I0
tp7383
bS'https:\\/\\/vine.co\\/v\\/OZajUAQQjX6'
p7384
tp7385
Rp7386
I935
sg1
(g2
(S'S33'
p7387
I0
I1
tp7388
Rp7389
(I3
S'|'
p7390
NNNI33
I1
I0
tp7391
bS'https:\\/\\/vine.co\\/v\\/eh7a7vqJQIB'
p7392
tp7393
Rp7394
I1105
sg1
(g2
(S'S33'
p7395
I0
I1
tp7396
Rp7397
(I3
S'|'
p7398
NNNI33
I1
I0
tp7399
bS'https:\\/\\/vine.co\\/v\\/eFwweQWYxDY'
p7400
tp7401
Rp7402
I388
sg1
(g2
(S'S33'
p7403
I0
I1
tp7404
Rp7405
(I3
S'|'
p7406
NNNI33
I1
I0
tp7407
bS'https:\\/\\/vine.co\\/v\\/iepOLZvMBYz'
p7408
tp7409
Rp7410
I938
sg1
(g2
(S'S33'
p7411
I0
I1
tp7412
Rp7413
(I3
S'|'
p7414
NNNI33
I1
I0
tp7415
bS'https:\\/\\/vine.co\\/v\\/OMbVhJbavOj'
p7416
tp7417
Rp7418
I939
sg1
(g2
(S'S33'
p7419
I0
I1
tp7420
Rp7421
(I3
S'|'
p7422
NNNI33
I1
I0
tp7423
bS'https:\\/\\/vine.co\\/v\\/e5bKedphelE'
p7424
tp7425
Rp7426
I799
sg1
(g2
(S'S33'
p7427
I0
I1
tp7428
Rp7429
(I3
S'|'
p7430
NNNI33
I1
I0
tp7431
bS'https:\\/\\/vine.co\\/v\\/eta2lt0TU15'
p7432
tp7433
Rp7434
I1138
sg1
(g2
(S'S33'
p7435
I0
I1
tp7436
Rp7437
(I3
S'|'
p7438
NNNI33
I1
I0
tp7439
bS'https:\\/\\/vine.co\\/v\\/ODmrLurXZ6b'
p7440
tp7441
Rp7442
I941
sg1
(g2
(S'S33'
p7443
I0
I1
tp7444
Rp7445
(I3
S'|'
p7446
NNNI33
I1
I0
tp7447
bS'https:\\/\\/vine.co\\/v\\/5gnEpqIwadK'
p7448
tp7449
Rp7450
I942
sg1
(g2
(S'S33'
p7451
I0
I1
tp7452
Rp7453
(I3
S'|'
p7454
NNNI33
I1
I0
tp7455
bS'https:\\/\\/vine.co\\/v\\/eXgATqQwFnF'
p7456
tp7457
Rp7458
I943
sg1
(g2
(S'S33'
p7459
I0
I1
tp7460
Rp7461
(I3
S'|'
p7462
NNNI33
I1
I0
tp7463
bS'https:\\/\\/vine.co\\/v\\/ObnnLLTLrQn'
p7464
tp7465
Rp7466
I134
sg1
(g2
(S'S33'
p7467
I0
I1
tp7468
Rp7469
(I3
S'|'
p7470
NNNI33
I1
I0
tp7471
bS'https:\\/\\/vine.co\\/v\\/iDgxV56X3Qz'
p7472
tp7473
Rp7474
I528
sg1
(g2
(S'S33'
p7475
I0
I1
tp7476
Rp7477
(I3
S'|'
p7478
NNNI33
I1
I0
tp7479
bS'https:\\/\\/vine.co\\/v\\/e6D21QEL5rq'
p7480
tp7481
Rp7482
I946
sg1
(g2
(S'S33'
p7483
I0
I1
tp7484
Rp7485
(I3
S'|'
p7486
NNNI33
I1
I0
tp7487
bS'https:\\/\\/vine.co\\/v\\/e2OFtXVuh2V'
p7488
tp7489
Rp7490
I18
sg1
(g2
(S'S33'
p7491
I0
I1
tp7492
Rp7493
(I3
S'|'
p7494
NNNI33
I1
I0
tp7495
bS'https:\\/\\/vine.co\\/v\\/eVdFlejWUJ3'
p7496
tp7497
Rp7498
I948
sg1
(g2
(S'S33'
p7499
I0
I1
tp7500
Rp7501
(I3
S'|'
p7502
NNNI33
I1
I0
tp7503
bS'https:\\/\\/vine.co\\/v\\/O3wjQuUH2hl'
p7504
tp7505
Rp7506
I796
sg1
(g2
(S'S33'
p7507
I0
I1
tp7508
Rp7509
(I3
S'|'
p7510
NNNI33
I1
I0
tp7511
bS'https:\\/\\/vine.co\\/v\\/irw2hBgV21p'
p7512
tp7513
Rp7514
I950
sg1
(g2
(S'S33'
p7515
I0
I1
tp7516
Rp7517
(I3
S'|'
p7518
NNNI33
I1
I0
tp7519
bS'https:\\/\\/vine.co\\/v\\/eMmXVPn5eQK'
p7520
tp7521
Rp7522
I40
sg1
(g2
(S'S33'
p7523
I0
I1
tp7524
Rp7525
(I3
S'|'
p7526
NNNI33
I1
I0
tp7527
bS'https:\\/\\/vine.co\\/v\\/eVJq11HiJux'
p7528
tp7529
Rp7530
I952
sg1
(g2
(S'S33'
p7531
I0
I1
tp7532
Rp7533
(I3
S'|'
p7534
NNNI33
I1
I0
tp7535
bS'https:\\/\\/vine.co\\/v\\/MlIUmWaBB3F'
p7536
tp7537
Rp7538
I953
sg1
(g2
(S'S33'
p7539
I0
I1
tp7540
Rp7541
(I3
S'|'
p7542
NNNI33
I1
I0
tp7543
bS'https:\\/\\/vine.co\\/v\\/5rzQgHFU6zO'
p7544
tp7545
Rp7546
I729
sg1
(g2
(S'S33'
p7547
I0
I1
tp7548
Rp7549
(I3
S'|'
p7550
NNNI33
I1
I0
tp7551
bS'https:\\/\\/vine.co\\/v\\/eYZP1WA5DHB'
p7552
tp7553
Rp7554
I956
sg1
(g2
(S'S33'
p7555
I0
I1
tp7556
Rp7557
(I3
S'|'
p7558
NNNI33
I1
I0
tp7559
bS'https:\\/\\/vine.co\\/v\\/iBDPqYZnWEO'
p7560
tp7561
Rp7562
I544
sg1
(g2
(S'S33'
p7563
I0
I1
tp7564
Rp7565
(I3
S'|'
p7566
NNNI33
I1
I0
tp7567
bS'https:\\/\\/vine.co\\/v\\/MFBmImgeYX7'
p7568
tp7569
Rp7570
I69
sg1
(g2
(S'S33'
p7571
I0
I1
tp7572
Rp7573
(I3
S'|'
p7574
NNNI33
I1
I0
tp7575
bS'https:\\/\\/vine.co\\/v\\/5wKH02d6TK7'
p7576
tp7577
Rp7578
I80
sg1
(g2
(S'S33'
p7579
I0
I1
tp7580
Rp7581
(I3
S'|'
p7582
NNNI33
I1
I0
tp7583
bS'https:\\/\\/vine.co\\/v\\/Op6YEKWLOXP'
p7584
tp7585
Rp7586
I84
sg1
(g2
(S'S33'
p7587
I0
I1
tp7588
Rp7589
(I3
S'|'
p7590
NNNI33
I1
I0
tp7591
bS'https:\\/\\/vine.co\\/v\\/OtEXrTaejat'
p7592
tp7593
Rp7594
I88
sg1
(g2
(S'S33'
p7595
I0
I1
tp7596
Rp7597
(I3
S'|'
p7598
NNNI33
I1
I0
tp7599
bS'https:\\/\\/vine.co\\/v\\/eMnmJtbP5zt'
p7600
tp7601
Rp7602
I91
sg1
(g2
(S'S33'
p7603
I0
I1
tp7604
Rp7605
(I3
S'|'
p7606
NNNI33
I1
I0
tp7607
bS'https:\\/\\/vine.co\\/v\\/OIZ7ODWMw9n'
p7608
tp7609
Rp7610
I963
sg1
(g2
(S'S33'
p7611
I0
I1
tp7612
Rp7613
(I3
S'|'
p7614
NNNI33
I1
I0
tp7615
bS'https:\\/\\/vine.co\\/v\\/MM3h26zvuLZ'
p7616
tp7617
Rp7618
I964
sg1
(g2
(S'S33'
p7619
I0
I1
tp7620
Rp7621
(I3
S'|'
p7622
NNNI33
I1
I0
tp7623
bS'https:\\/\\/vine.co\\/v\\/OZmgYWzzmQH'
p7624
tp7625
Rp7626
I819
sg1
(g2
(S'S33'
p7627
I0
I1
tp7628
Rp7629
(I3
S'|'
p7630
NNNI33
I1
I0
tp7631
bS'https:\\/\\/vine.co\\/v\\/OdTAHZPrwxB'
p7632
tp7633
Rp7634
I107
sg1
(g2
(S'S33'
p7635
I0
I1
tp7636
Rp7637
(I3
S'|'
p7638
NNNI33
I1
I0
tp7639
bS'https:\\/\\/vine.co\\/v\\/Obbz1lqn2IT'
p7640
tp7641
Rp7642
I811
sg1
(g2
(S'S33'
p7643
I0
I1
tp7644
Rp7645
(I3
S'|'
p7646
NNNI33
I1
I0
tp7647
bS'https:\\/\\/vine.co\\/v\\/5p5pBpVEgnv'
p7648
tp7649
Rp7650
I969
sg1
(g2
(S'S33'
p7651
I0
I1
tp7652
Rp7653
(I3
S'|'
p7654
NNNI33
I1
I0
tp7655
bS'https:\\/\\/vine.co\\/v\\/5mVXiKO5bPd'
p7656
tp7657
Rp7658
I970
sg1
(g2
(S'S33'
p7659
I0
I1
tp7660
Rp7661
(I3
S'|'
p7662
NNNI33
I1
I0
tp7663
bS'https:\\/\\/vine.co\\/v\\/eBXXUdErEIP'
p7664
tp7665
Rp7666
I971
sg1
(g2
(S'S33'
p7667
I0
I1
tp7668
Rp7669
(I3
S'|'
p7670
NNNI33
I1
I0
tp7671
bS'https:\\/\\/vine.co\\/v\\/etUdLue0HnX'
p7672
tp7673
Rp7674
I972
sg1
(g2
(S'S33'
p7675
I0
I1
tp7676
Rp7677
(I3
S'|'
p7678
NNNI33
I1
I0
tp7679
bS'https:\\/\\/vine.co\\/v\\/i6bj0pQFhxM'
p7680
tp7681
Rp7682
I973
sg1
(g2
(S'S33'
p7683
I0
I1
tp7684
Rp7685
(I3
S'|'
p7686
NNNI33
I1
I0
tp7687
bS'https:\\/\\/vine.co\\/v\\/b0BzIJMqxde'
p7688
tp7689
Rp7690
I974
sg1
(g2
(S'S33'
p7691
I0
I1
tp7692
Rp7693
(I3
S'|'
p7694
NNNI33
I1
I0
tp7695
bS'https:\\/\\/vine.co\\/v\\/MFZi6Eu6IDF'
p7696
tp7697
Rp7698
I975
sg1
(g2
(S'S33'
p7699
I0
I1
tp7700
Rp7701
(I3
S'|'
p7702
NNNI33
I1
I0
tp7703
bS'https:\\/\\/vine.co\\/v\\/M6LxPnhqTPJ'
p7704
tp7705
Rp7706
I976
sg1
(g2
(S'S33'
p7707
I0
I1
tp7708
Rp7709
(I3
S'|'
p7710
NNNI33
I1
I0
tp7711
bS'https:\\/\\/vine.co\\/v\\/ebMux3B5X7v'
p7712
tp7713
Rp7714
I977
sg1
(g2
(S'S33'
p7715
I0
I1
tp7716
Rp7717
(I3
S'|'
p7718
NNNI33
I1
I0
tp7719
bS'https:\\/\\/vine.co\\/v\\/ejDlKXK6riO'
p7720
tp7721
Rp7722
I1112
sg1
(g2
(S'S33'
p7723
I0
I1
tp7724
Rp7725
(I3
S'|'
p7726
NNNI33
I1
I0
tp7727
bS'https:\\/\\/vine.co\\/v\\/MeaT5D5v3Yi'
p7728
tp7729
Rp7730
I978
sg1
(g2
(S'S33'
p7731
I0
I1
tp7732
Rp7733
(I3
S'|'
p7734
NNNI33
I1
I0
tp7735
bS'https:\\/\\/vine.co\\/v\\/MOH0HX7QzuT'
p7736
tp7737
Rp7738
I979
sg1
(g2
(S'S33'
p7739
I0
I1
tp7740
Rp7741
(I3
S'|'
p7742
NNNI33
I1
I0
tp7743
bS'https:\\/\\/vine.co\\/v\\/eIYLdg7KHDh'
p7744
tp7745
Rp7746
I709
sg1
(g2
(S'S33'
p7747
I0
I1
tp7748
Rp7749
(I3
S'|'
p7750
NNNI33
I1
I0
tp7751
bS'https:\\/\\/vine.co\\/v\\/Mn9bBTQp71V'
p7752
tp7753
Rp7754
I766
sg1
(g2
(S'S33'
p7755
I0
I1
tp7756
Rp7757
(I3
S'|'
p7758
NNNI33
I1
I0
tp7759
bS'https:\\/\\/vine.co\\/v\\/e0uAYEPTPwu'
p7760
tp7761
Rp7762
I982
sg1
(g2
(S'S33'
p7763
I0
I1
tp7764
Rp7765
(I3
S'|'
p7766
NNNI33
I1
I0
tp7767
bS'https:\\/\\/vine.co\\/v\\/OUljvzWBBiU'
p7768
tp7769
Rp7770
I872
sg1
(g2
(S'S33'
p7771
I0
I1
tp7772
Rp7773
(I3
S'|'
p7774
NNNI33
I1
I0
tp7775
bS'https:\\/\\/vine.co\\/v\\/exZmvZ5rbTl'
p7776
tp7777
Rp7778
I984
sg1
(g2
(S'S33'
p7779
I0
I1
tp7780
Rp7781
(I3
S'|'
p7782
NNNI33
I1
I0
tp7783
bS'https:\\/\\/vine.co\\/v\\/55m7LWIYmE5'
p7784
tp7785
Rp7786
I985
sg1
(g2
(S'S33'
p7787
I0
I1
tp7788
Rp7789
(I3
S'|'
p7790
NNNI33
I1
I0
tp7791
bS'https:\\/\\/vine.co\\/v\\/hbpVueATxIi'
p7792
tp7793
Rp7794
I986
sg1
(g2
(S'S33'
p7795
I0
I1
tp7796
Rp7797
(I3
S'|'
p7798
NNNI33
I1
I0
tp7799
bS'https:\\/\\/vine.co\\/v\\/ijhvY5x1Dwi'
p7800
tp7801
Rp7802
I988
sg1
(g2
(S'S33'
p7803
I0
I1
tp7804
Rp7805
(I3
S'|'
p7806
NNNI33
I1
I0
tp7807
bS'https:\\/\\/vine.co\\/v\\/eqnVLAAE9dP'
p7808
tp7809
Rp7810
I989
sg1
(g2
(S'S33'
p7811
I0
I1
tp7812
Rp7813
(I3
S'|'
p7814
NNNI33
I1
I0
tp7815
bS'https:\\/\\/vine.co\\/v\\/eZiWE0E0dOQ'
p7816
tp7817
Rp7818
I990
sg1
(g2
(S'S33'
p7819
I0
I1
tp7820
Rp7821
(I3
S'|'
p7822
NNNI33
I1
I0
tp7823
bS'https:\\/\\/vine.co\\/v\\/ixHYvdxUx1L'
p7824
tp7825
Rp7826
I814
sg1
(g2
(S'S33'
p7827
I0
I1
tp7828
Rp7829
(I3
S'|'
p7830
NNNI33
I1
I0
tp7831
bS'https:\\/\\/vine.co\\/v\\/OXH33VxrbbZ'
p7832
tp7833
Rp7834
I991
sg1
(g2
(S'S33'
p7835
I0
I1
tp7836
Rp7837
(I3
S'|'
p7838
NNNI33
I1
I0
tp7839
bS'https:\\/\\/vine.co\\/v\\/eQvYKEEZdF6'
p7840
tp7841
Rp7842
I992
sg1
(g2
(S'S33'
p7843
I0
I1
tp7844
Rp7845
(I3
S'|'
p7846
NNNI33
I1
I0
tp7847
bS'https:\\/\\/vine.co\\/v\\/iV7iii6BnUB'
p7848
tp7849
Rp7850
I993
sg1
(g2
(S'S33'
p7851
I0
I1
tp7852
Rp7853
(I3
S'|'
p7854
NNNI33
I1
I0
tp7855
bS'https:\\/\\/vine.co\\/v\\/iE5ZxggvduQ'
p7856
tp7857
Rp7858
I994
sg1
(g2
(S'S33'
p7859
I0
I1
tp7860
Rp7861
(I3
S'|'
p7862
NNNI33
I1
I0
tp7863
bS'https:\\/\\/vine.co\\/v\\/iHXwri91Trm'
p7864
tp7865
Rp7866
I995
sg1
(g2
(S'S33'
p7867
I0
I1
tp7868
Rp7869
(I3
S'|'
p7870
NNNI33
I1
I0
tp7871
bS'https:\\/\\/vine.co\\/v\\/Mdv2tipvaYZ'
p7872
tp7873
Rp7874
I1115
sg1
(g2
(S'S33'
p7875
I0
I1
tp7876
Rp7877
(I3
S'|'
p7878
NNNI33
I1
I0
tp7879
bS'https:\\/\\/vine.co\\/v\\/O6H1XvxjrPi'
p7880
tp7881
Rp7882
I997
sg1
(g2
(S'S33'
p7883
I0
I1
tp7884
Rp7885
(I3
S'|'
p7886
NNNI33
I1
I0
tp7887
bS'https:\\/\\/vine.co\\/v\\/OQLUMOqMmwn'
p7888
tp7889
Rp7890
I998
sg1
(g2
(S'S33'
p7891
I0
I1
tp7892
Rp7893
(I3
S'|'
p7894
NNNI33
I1
I0
tp7895
bS'https:\\/\\/vine.co\\/v\\/hMLZZtAnl2P'
p7896
tp7897
Rp7898
I999
sg1
(g2
(S'S33'
p7899
I0
I1
tp7900
Rp7901
(I3
S'|'
p7902
NNNI33
I1
I0
tp7903
bS'https:\\/\\/vine.co\\/v\\/btg6XePVtzm'
p7904
tp7905
Rp7906
I1000
sg1
(g2
(S'S33'
p7907
I0
I1
tp7908
Rp7909
(I3
S'|'
p7910
NNNI33
I1
I0
tp7911
bS'https:\\/\\/vine.co\\/v\\/edi0FnKrz2Y'
p7912
tp7913
Rp7914
I1001
sg1
(g2
(S'S33'
p7915
I0
I1
tp7916
Rp7917
(I3
S'|'
p7918
NNNI33
I1
I0
tp7919
bS'https:\\/\\/vine.co\\/v\\/iJVhe0qUEHV'
p7920
tp7921
Rp7922
I1002
sg1
(g2
(S'S33'
p7923
I0
I1
tp7924
Rp7925
(I3
S'|'
p7926
NNNI33
I1
I0
tp7927
bS'https:\\/\\/vine.co\\/v\\/OQhh17a5zPB'
p7928
tp7929
Rp7930
I302
sg1
(g2
(S'S33'
p7931
I0
I1
tp7932
Rp7933
(I3
S'|'
p7934
NNNI33
I1
I0
tp7935
bS'https:\\/\\/vine.co\\/v\\/ezgnKF0dntY'
p7936
tp7937
Rp7938
I1004
sg1
(g2
(S'S33'
p7939
I0
I1
tp7940
Rp7941
(I3
S'|'
p7942
NNNI33
I1
I0
tp7943
bS'https:\\/\\/vine.co\\/v\\/Ml6ubd6mH6P'
p7944
tp7945
Rp7946
I1005
sg1
(g2
(S'S33'
p7947
I0
I1
tp7948
Rp7949
(I3
S'|'
p7950
NNNI33
I1
I0
tp7951
bS'https:\\/\\/vine.co\\/v\\/OgLlen9amK9'
p7952
tp7953
Rp7954
I339
sg1
(g2
(S'S33'
p7955
I0
I1
tp7956
Rp7957
(I3
S'|'
p7958
NNNI33
I1
I0
tp7959
bS'https:\\/\\/vine.co\\/v\\/iAQLmepB6tv'
p7960
tp7961
Rp7962
I1007
sg1
(g2
(S'S33'
p7963
I0
I1
tp7964
Rp7965
(I3
S'|'
p7966
NNNI33
I1
I0
tp7967
bS'https:\\/\\/vine.co\\/v\\/e93TjWmDZvU'
p7968
tp7969
Rp7970
I1008
sg1
(g2
(S'S33'
p7971
I0
I1
tp7972
Rp7973
(I3
S'|'
p7974
NNNI33
I1
I0
tp7975
bS'https:\\/\\/vine.co\\/v\\/eVZlmQH1LTn'
p7976
tp7977
Rp7978
I1009
sg1
(g2
(S'S33'
p7979
I0
I1
tp7980
Rp7981
(I3
S'|'
p7982
NNNI33
I1
I0
tp7983
bS'https:\\/\\/vine.co\\/v\\/iMAHYTw00bH'
p7984
tp7985
Rp7986
I1010
sg1
(g2
(S'S33'
p7987
I0
I1
tp7988
Rp7989
(I3
S'|'
p7990
NNNI33
I1
I0
tp7991
bS'https:\\/\\/vine.co\\/v\\/5HnnedeAndq'
p7992
tp7993
Rp7994
I338
sg1
(g2
(S'S33'
p7995
I0
I1
tp7996
Rp7997
(I3
S'|'
p7998
NNNI33
I1
I0
tp7999
bS'https:\\/\\/vine.co\\/v\\/MTuFYLEhmB7'
p8000
tp8001
Rp8002
I341
sg1
(g2
(S'S33'
p8003
I0
I1
tp8004
Rp8005
(I3
S'|'
p8006
NNNI33
I1
I0
tp8007
bS'https:\\/\\/vine.co\\/v\\/OA0glEqb16j'
p8008
tp8009
Rp8010
I1013
sg1
(g2
(S'S33'
p8011
I0
I1
tp8012
Rp8013
(I3
S'|'
p8014
NNNI33
I1
I0
tp8015
bS'https:\\/\\/vine.co\\/v\\/ei2AVBVrn07'
p8016
tp8017
Rp8018
I1014
sg1
(g2
(S'S33'
p8019
I0
I1
tp8020
Rp8021
(I3
S'|'
p8022
NNNI33
I1
I0
tp8023
bS'https:\\/\\/vine.co\\/v\\/OQqxU7KFzKY'
p8024
tp8025
Rp8026
I1015
sg1
(g2
(S'S33'
p8027
I0
I1
tp8028
Rp8029
(I3
S'|'
p8030
NNNI33
I1
I0
tp8031
bS'https:\\/\\/vine.co\\/v\\/57bpLgpB1B9'
p8032
tp8033
Rp8034
I356
sg1
(g2
(S'S33'
p8035
I0
I1
tp8036
Rp8037
(I3
S'|'
p8038
NNNI33
I1
I0
tp8039
bS'https:\\/\\/vine.co\\/v\\/iqXK5AvmY5T'
p8040
tp8041
Rp8042
I1017
sg1
(g2
(S'S33'
p8043
I0
I1
tp8044
Rp8045
(I3
S'|'
p8046
NNNI33
I1
I0
tp8047
bS'https:\\/\\/vine.co\\/v\\/OQVVj7xxudZ'
p8048
tp8049
Rp8050
I1018
sg1
(g2
(S'S33'
p8051
I0
I1
tp8052
Rp8053
(I3
S'|'
p8054
NNNI33
I1
I0
tp8055
bS'https:\\/\\/vine.co\\/v\\/eKVPHMBH2q7'
p8056
tp8057
Rp8058
I1019
sg1
(g2
(S'S33'
p8059
I0
I1
tp8060
Rp8061
(I3
S'|'
p8062
NNNI33
I1
I0
tp8063
bS'https:\\/\\/vine.co\\/v\\/OdaputiKzZa'
p8064
tp8065
Rp8066
I383
sg1
(g2
(S'S33'
p8067
I0
I1
tp8068
Rp8069
(I3
S'|'
p8070
NNNI33
I1
I0
tp8071
bS'https:\\/\\/vine.co\\/v\\/OYtQ7hYFHKA'
p8072
tp8073
Rp8074
I1021
sg1
(g2
(S'S33'
p8075
I0
I1
tp8076
Rp8077
(I3
S'|'
p8078
NNNI33
I1
I0
tp8079
bS'https:\\/\\/vine.co\\/v\\/OY7eKtax5H1'
p8080
tp8081
Rp8082
I1022
sg1
(g2
(S'S33'
p8083
I0
I1
tp8084
Rp8085
(I3
S'|'
p8086
NNNI33
I1
I0
tp8087
bS'https:\\/\\/vine.co\\/v\\/e09vZUiYY3r'
p8088
tp8089
Rp8090
I1023
sg1
(g2
(S'S33'
p8091
I0
I1
tp8092
Rp8093
(I3
S'|'
p8094
NNNI33
I1
I0
tp8095
bS'https:\\/\\/vine.co\\/v\\/iDFI7Exxtlz'
p8096
tp8097
Rp8098
I1024
sg1
(g2
(S'S33'
p8099
I0
I1
tp8100
Rp8101
(I3
S'|'
p8102
NNNI33
I1
I0
tp8103
bS'https:\\/\\/vine.co\\/v\\/5ejbQvZdAqv'
p8104
tp8105
Rp8106
I1025
sg1
(g2
(S'S33'
p8107
I0
I1
tp8108
Rp8109
(I3
S'|'
p8110
NNNI33
I1
I0
tp8111
bS'https:\\/\\/vine.co\\/v\\/Ot0jViMbWxE'
p8112
tp8113
Rp8114
I1026
sg1
(g2
(S'S33'
p8115
I0
I1
tp8116
Rp8117
(I3
S'|'
p8118
NNNI33
I1
I0
tp8119
bS'https:\\/\\/vine.co\\/v\\/e2J7K6qzmm0'
p8120
tp8121
Rp8122
I828
sg1
(g2
(S'S33'
p8123
I0
I1
tp8124
Rp8125
(I3
S'|'
p8126
NNNI33
I1
I0
tp8127
bS'https:\\/\\/vine.co\\/v\\/MXMwlgge9tZ'
p8128
tp8129
Rp8130
I1027
sg1
(g2
(S'S33'
p8131
I0
I1
tp8132
Rp8133
(I3
S'|'
p8134
NNNI33
I1
I0
tp8135
bS'https:\\/\\/vine.co\\/v\\/OEjXltzVlZE'
p8136
tp8137
Rp8138
I1120
sg1
(g2
(S'S33'
p8139
I0
I1
tp8140
Rp8141
(I3
S'|'
p8142
NNNI33
I1
I0
tp8143
bS'https:\\/\\/vine.co\\/v\\/ixut2e1A9zm'
p8144
tp8145
Rp8146
I1029
sg1
(g2
(S'S33'
p8147
I0
I1
tp8148
Rp8149
(I3
S'|'
p8150
NNNI33
I1
I0
tp8151
bS'https:\\/\\/vine.co\\/v\\/51PbY5Tv01h'
p8152
tp8153
Rp8154
I847
sg1
(g2
(S'S33'
p8155
I0
I1
tp8156
Rp8157
(I3
S'|'
p8158
NNNI33
I1
I0
tp8159
bS'https:\\/\\/vine.co\\/v\\/O0VvMWL5F2d'
p8160
tp8161
Rp8162
I570
sg1
(g2
(S'S33'
p8163
I0
I1
tp8164
Rp8165
(I3
S'|'
p8166
NNNI33
I1
I0
tp8167
bS'https:\\/\\/vine.co\\/v\\/eTrIrEeIh53'
p8168
tp8169
Rp8170
I1032
sg1
(g2
(S'S33'
p8171
I0
I1
tp8172
Rp8173
(I3
S'|'
p8174
NNNI33
I1
I0
tp8175
bS'https:\\/\\/vine.co\\/v\\/e6ZO0dTw1JB'
p8176
tp8177
Rp8178
I1033
sg1
(g2
(S'S33'
p8179
I0
I1
tp8180
Rp8181
(I3
S'|'
p8182
NNNI33
I1
I0
tp8183
bS'https:\\/\\/vine.co\\/v\\/eQvLlJgeQD2'
p8184
tp8185
Rp8186
I660
sg1
(g2
(S'S33'
p8187
I0
I1
tp8188
Rp8189
(I3
S'|'
p8190
NNNI33
I1
I0
tp8191
bS'https:\\/\\/vine.co\\/v\\/i3KXdMu5TxL'
p8192
tp8193
Rp8194
I1035
sg1
(g2
(S'S33'
p8195
I0
I1
tp8196
Rp8197
(I3
S'|'
p8198
NNNI33
I1
I0
tp8199
bS'https:\\/\\/vine.co\\/v\\/MxTJhAptY2T'
p8200
tp8201
Rp8202
I945
sg1
(g2
(S'S33'
p8203
I0
I1
tp8204
Rp8205
(I3
S'|'
p8206
NNNI33
I1
I0
tp8207
bS'https:\\/\\/vine.co\\/v\\/ipHJbxviZ1g'
p8208
tp8209
Rp8210
I1107
sg1
(g2
(S'S33'
p8211
I0
I1
tp8212
Rp8213
(I3
S'|'
p8214
NNNI33
I1
I0
tp8215
bS'https:\\/\\/vine.co\\/v\\/MlurgIZ20n0'
p8216
tp8217
Rp8218
I981
sg1
(g2
(S'S33'
p8219
I0
I1
tp8220
Rp8221
(I3
S'|'
p8222
NNNI33
I1
I0
tp8223
bS'https:\\/\\/vine.co\\/v\\/igHqExqpqH0'
p8224
tp8225
Rp8226
I968
sg1
(g2
(S'S33'
p8227
I0
I1
tp8228
Rp8229
(I3
S'|'
p8230
NNNI33
I1
I0
tp8231
bS'https:\\/\\/vine.co\\/v\\/bg3Zj6xdPmP'
p8232
tp8233
Rp8234
I493
sg1
(g2
(S'S33'
p8235
I0
I1
tp8236
Rp8237
(I3
S'|'
p8238
NNNI33
I1
I0
tp8239
bS'https:\\/\\/vine.co\\/v\\/5g3rI1E7FVt'
p8240
tp8241
Rp8242
I1038
sg1
(g2
(S'S33'
p8243
I0
I1
tp8244
Rp8245
(I3
S'|'
p8246
NNNI33
I1
I0
tp8247
bS'https:\\/\\/vine.co\\/v\\/eYrl3nI5UZT'
p8248
tp8249
Rp8250
I1039
sg1
(g2
(S'S33'
p8251
I0
I1
tp8252
Rp8253
(I3
S'|'
p8254
NNNI33
I1
I0
tp8255
bS'https:\\/\\/vine.co\\/v\\/hVVFHe15PrT'
p8256
tp8257
Rp8258
I1040
sg1
(g2
(S'S33'
p8259
I0
I1
tp8260
Rp8261
(I3
S'|'
p8262
NNNI33
I1
I0
tp8263
bS'https:\\/\\/vine.co\\/v\\/5wJVj03qIw9'
p8264
tp8265
Rp8266
I1041
sg1
(g2
(S'S33'
p8267
I0
I1
tp8268
Rp8269
(I3
S'|'
p8270
NNNI33
I1
I0
tp8271
bS'https:\\/\\/vine.co\\/v\\/e6QvWVzHVAM'
p8272
tp8273
Rp8274
I1042
sg1
(g2
(S'S33'
p8275
I0
I1
tp8276
Rp8277
(I3
S'|'
p8278
NNNI33
I1
I0
tp8279
bS'https:\\/\\/vine.co\\/v\\/et2ur2zzJFL'
p8280
tp8281
Rp8282
I1043
sg1
(g2
(S'S33'
p8283
I0
I1
tp8284
Rp8285
(I3
S'|'
p8286
NNNI33
I1
I0
tp8287
bS'https:\\/\\/vine.co\\/v\\/iF2HXOL5VPF'
p8288
tp8289
Rp8290
I1087
sg1
(g2
(S'S33'
p8291
I0
I1
tp8292
Rp8293
(I3
S'|'
p8294
NNNI33
I1
I0
tp8295
bS'https:\\/\\/vine.co\\/v\\/O0MFJ6r0BX2'
p8296
tp8297
Rp8298
I268
sg1
(g2
(S'S33'
p8299
I0
I1
tp8300
Rp8301
(I3
S'|'
p8302
NNNI33
I1
I0
tp8303
bS'https:\\/\\/vine.co\\/v\\/hlrLpmDeewW'
p8304
tp8305
Rp8306
I1045
sg1
(g2
(S'S33'
p8307
I0
I1
tp8308
Rp8309
(I3
S'|'
p8310
NNNI33
I1
I0
tp8311
bS'https:\\/\\/vine.co\\/v\\/iU7bvr9d3eM'
p8312
tp8313
Rp8314
I965
sg1
(g2
(S'S33'
p8315
I0
I1
tp8316
Rp8317
(I3
S'|'
p8318
NNNI33
I1
I0
tp8319
bS'https:\\/\\/vine.co\\/v\\/5wBd32dLHrQ'
p8320
tp8321
Rp8322
I1046
sg1
(g2
(S'S33'
p8323
I0
I1
tp8324
Rp8325
(I3
S'|'
p8326
NNNI33
I1
I0
tp8327
bS'https:\\/\\/vine.co\\/v\\/eVZvdDMrQWJ'
p8328
tp8329
Rp8330
I447
sg1
(g2
(S'S33'
p8331
I0
I1
tp8332
Rp8333
(I3
S'|'
p8334
NNNI33
I1
I0
tp8335
bS'https:\\/\\/vine.co\\/v\\/edPPzHDazxZ'
p8336
tp8337
Rp8338
I1048
sg1
(g2
(S'S33'
p8339
I0
I1
tp8340
Rp8341
(I3
S'|'
p8342
NNNI33
I1
I0
tp8343
bS'https:\\/\\/vine.co\\/v\\/eli36qOxVA0'
p8344
tp8345
Rp8346
I1049
sg1
(g2
(S'S33'
p8347
I0
I1
tp8348
Rp8349
(I3
S'|'
p8350
NNNI33
I1
I0
tp8351
bS'https:\\/\\/vine.co\\/v\\/h2hBKJZnKUB'
p8352
tp8353
Rp8354
I1050
sg1
(g2
(S'S33'
p8355
I0
I1
tp8356
Rp8357
(I3
S'|'
p8358
NNNI33
I1
I0
tp8359
bS'https:\\/\\/vine.co\\/v\\/igH3wW1Khe9'
p8360
tp8361
Rp8362
I1051
sg1
(g2
(S'S33'
p8363
I0
I1
tp8364
Rp8365
(I3
S'|'
p8366
NNNI33
I1
I0
tp8367
bS'https:\\/\\/vine.co\\/v\\/OtuFF507lvP'
p8368
tp8369
Rp8370
I1052
sg1
(g2
(S'S33'
p8371
I0
I1
tp8372
Rp8373
(I3
S'|'
p8374
NNNI33
I1
I0
tp8375
bS'https:\\/\\/vine.co\\/v\\/eI50u1j26hX'
p8376
tp8377
Rp8378
I575
sg1
(g2
(S'S33'
p8379
I0
I1
tp8380
Rp8381
(I3
S'|'
p8382
NNNI33
I1
I0
tp8383
bS'https:\\/\\/vine.co\\/v\\/OvbEpj5bF72'
p8384
tp8385
Rp8386
I580
sg1
(g2
(S'S33'
p8387
I0
I1
tp8388
Rp8389
(I3
S'|'
p8390
NNNI33
I1
I0
tp8391
bS'https:\\/\\/vine.co\\/v\\/iJwwwYMzjOU'
p8392
tp8393
Rp8394
I594
sg1
(g2
(S'S33'
p8395
I0
I1
tp8396
Rp8397
(I3
S'|'
p8398
NNNI33
I1
I0
tp8399
bS'https:\\/\\/vine.co\\/v\\/MuzPTKxzpYB'
p8400
tp8401
Rp8402
I1057
sg1
(g2
(S'S33'
p8403
I0
I1
tp8404
Rp8405
(I3
S'|'
p8406
NNNI33
I1
I0
tp8407
bS'https:\\/\\/vine.co\\/v\\/5ZQEXFwuVEE'
p8408
tp8409
Rp8410
I745
sg1
(g2
(S'S33'
p8411
I0
I1
tp8412
Rp8413
(I3
S'|'
p8414
NNNI33
I1
I0
tp8415
bS'https:\\/\\/vine.co\\/v\\/553lJXPEUYP'
p8416
tp8417
Rp8418
I1059
sg1
(g2
(S'S33'
p8419
I0
I1
tp8420
Rp8421
(I3
S'|'
p8422
NNNI33
I1
I0
tp8423
bS'https:\\/\\/vine.co\\/v\\/erdHemOmmpZ'
p8424
tp8425
Rp8426
I1060
sg1
(g2
(S'S33'
p8427
I0
I1
tp8428
Rp8429
(I3
S'|'
p8430
NNNI33
I1
I0
tp8431
bS'https:\\/\\/vine.co\\/v\\/MIjTE3ZDxa3'
p8432
tp8433
Rp8434
I807
sg1
(g2
(S'S33'
p8435
I0
I1
tp8436
Rp8437
(I3
S'|'
p8438
NNNI33
I1
I0
tp8439
bS'https:\\/\\/vine.co\\/v\\/OUvAvAYQm6I'
p8440
tp8441
Rp8442
I1061
sg1
(g2
(S'S33'
p8443
I0
I1
tp8444
Rp8445
(I3
S'|'
p8446
NNNI33
I1
I0
tp8447
bS'https:\\/\\/vine.co\\/v\\/eV7JQiaFI0K'
p8448
tp8449
Rp8450
I554
sg1
(g2
(S'S33'
p8451
I0
I1
tp8452
Rp8453
(I3
S'|'
p8454
NNNI33
I1
I0
tp8455
bS'https:\\/\\/vine.co\\/v\\/igLVbqFr7EI'
p8456
tp8457
Rp8458
I1063
sg1
(g2
(S'S33'
p8459
I0
I1
tp8460
Rp8461
(I3
S'|'
p8462
NNNI33
I1
I0
tp8463
bS'https:\\/\\/vine.co\\/v\\/eQzbq1U3Ynp'
p8464
tp8465
Rp8466
I1064
sg1
(g2
(S'S33'
p8467
I0
I1
tp8468
Rp8469
(I3
S'|'
p8470
NNNI33
I1
I0
tp8471
bS'https:\\/\\/vine.co\\/v\\/OqJKZVQami9'
p8472
tp8473
Rp8474
I1065
sg1
(g2
(S'S33'
p8475
I0
I1
tp8476
Rp8477
(I3
S'|'
p8478
NNNI33
I1
I0
tp8479
bS'https:\\/\\/vine.co\\/v\\/im1BIlaaIHx'
p8480
tp8481
Rp8482
I1066
sg1
(g2
(S'S33'
p8483
I0
I1
tp8484
Rp8485
(I3
S'|'
p8486
NNNI33
I1
I0
tp8487
bS'https:\\/\\/vine.co\\/v\\/M21Hb5Mmwgw'
p8488
tp8489
Rp8490
I1067
sg1
(g2
(S'S33'
p8491
I0
I1
tp8492
Rp8493
(I3
S'|'
p8494
NNNI33
I1
I0
tp8495
bS'https:\\/\\/vine.co\\/v\\/O9Ore12QzHQ'
p8496
tp8497
Rp8498
I1068
sg1
(g2
(S'S33'
p8499
I0
I1
tp8500
Rp8501
(I3
S'|'
p8502
NNNI33
I1
I0
tp8503
bS'https:\\/\\/vine.co\\/v\\/M16TUDAgTtt'
p8504
tp8505
Rp8506
I1069
sg1
(g2
(S'S33'
p8507
I0
I1
tp8508
Rp8509
(I3
S'|'
p8510
NNNI33
I1
I0
tp8511
bS'https:\\/\\/vine.co\\/v\\/hUvHKYrdb1d'
p8512
tp8513
Rp8514
I727
sg1
(g2
(S'S33'
p8515
I0
I1
tp8516
Rp8517
(I3
S'|'
p8518
NNNI33
I1
I0
tp8519
bS'https:\\/\\/vine.co\\/v\\/5hEZWYm3h3F'
p8520
tp8521
Rp8522
I1070
sg1
(g2
(S'S33'
p8523
I0
I1
tp8524
Rp8525
(I3
S'|'
p8526
NNNI33
I1
I0
tp8527
bS'https:\\/\\/vine.co\\/v\\/MWZHlrBupE5'
p8528
tp8529
Rp8530
I966
sg1
(g2
(S'S33'
p8531
I0
I1
tp8532
Rp8533
(I3
S'|'
p8534
NNNI33
I1
I0
tp8535
bS'https:\\/\\/vine.co\\/v\\/eJuAqVHgXKd'
p8536
tp8537
Rp8538
I454
sg1
(g2
(S'S33'
p8539
I0
I1
tp8540
Rp8541
(I3
S'|'
p8542
NNNI33
I1
I0
tp8543
bS'https:\\/\\/vine.co\\/v\\/eIQJ7xhVOYq'
p8544
tp8545
Rp8546
I1073
sg1
(g2
(S'S33'
p8547
I0
I1
tp8548
Rp8549
(I3
S'|'
p8550
NNNI33
I1
I0
tp8551
bS'https:\\/\\/vine.co\\/v\\/e02PxtmhqWJ'
p8552
tp8553
Rp8554
I1074
sg1
(g2
(S'S33'
p8555
I0
I1
tp8556
Rp8557
(I3
S'|'
p8558
NNNI33
I1
I0
tp8559
bS'https:\\/\\/vine.co\\/v\\/5Ot7W2HKWWn'
p8560
tp8561
Rp8562
I715
sg1
(g2
(S'S33'
p8563
I0
I1
tp8564
Rp8565
(I3
S'|'
p8566
NNNI33
I1
I0
tp8567
bS'https:\\/\\/vine.co\\/v\\/MdIOqzKMvIa'
p8568
tp8569
Rp8570
I1076
sg1
(g2
(S'S33'
p8571
I0
I1
tp8572
Rp8573
(I3
S'|'
p8574
NNNI33
I1
I0
tp8575
bS'https:\\/\\/vine.co\\/v\\/iIprxYu0tEn'
p8576
tp8577
Rp8578
I1077
sg1
(g2
(S'S33'
p8579
I0
I1
tp8580
Rp8581
(I3
S'|'
p8582
NNNI33
I1
I0
tp8583
bS'https:\\/\\/vine.co\\/v\\/OwvzIx2eIbK'
p8584
tp8585
Rp8586
I1072
sg1
(g2
(S'S33'
p8587
I0
I1
tp8588
Rp8589
(I3
S'|'
p8590
NNNI33
I1
I0
tp8591
bS'https:\\/\\/vine.co\\/v\\/OLQuAm77qEM'
p8592
tp8593
Rp8594
I1079
sg1
(g2
(S'S33'
p8595
I0
I1
tp8596
Rp8597
(I3
S'|'
p8598
NNNI33
I1
I0
tp8599
bS'https:\\/\\/vine.co\\/v\\/5Wm7igEpLKX'
p8600
tp8601
Rp8602
I823
sg1
(g2
(S'S33'
p8603
I0
I1
tp8604
Rp8605
(I3
S'|'
p8606
NNNI33
I1
I0
tp8607
bS'https:\\/\\/vine.co\\/v\\/eDeVgbFrt9L'
p8608
tp8609
Rp8610
I1081
sg1
(g2
(S'S33'
p8611
I0
I1
tp8612
Rp8613
(I3
S'|'
p8614
NNNI33
I1
I0
tp8615
bS'https:\\/\\/vine.co\\/v\\/eFlQQ2WdjFr'
p8616
tp8617
Rp8618
I1082
sg1
(g2
(S'S33'
p8619
I0
I1
tp8620
Rp8621
(I3
S'|'
p8622
NNNI33
I1
I0
tp8623
bS'https:\\/\\/vine.co\\/v\\/inuTrLVHVMZ'
p8624
tp8625
Rp8626
I867
sg1
(g2
(S'S33'
p8627
I0
I1
tp8628
Rp8629
(I3
S'|'
p8630
NNNI33
I1
I0
tp8631
bS'https:\\/\\/vine.co\\/v\\/eHbLUxBq7VK'
p8632
tp8633
Rp8634
I1084
sg1
(g2
(S'S33'
p8635
I0
I1
tp8636
Rp8637
(I3
S'|'
p8638
NNNI33
I1
I0
tp8639
bS'https:\\/\\/vine.co\\/v\\/5XDpajAKIQu'
p8640
tp8641
Rp8642
I1062
sg1
(g2
(S'S33'
p8643
I0
I1
tp8644
Rp8645
(I3
S'|'
p8646
NNNI33
I1
I0
tp8647
bS'https:\\/\\/vine.co\\/v\\/5WFm57bHuI7'
p8648
tp8649
Rp8650
I1124
sg1
(g2
(S'S33'
p8651
I0
I1
tp8652
Rp8653
(I3
S'|'
p8654
NNNI33
I1
I0
tp8655
bS'https:\\/\\/vine.co\\/v\\/ijZdQJDU1ze'
p8656
tp8657
Rp8658
I1086
sg1
(g2
(S'S33'
p8659
I0
I1
tp8660
Rp8661
(I3
S'|'
p8662
NNNI33
I1
I0
tp8663
bS'https:\\/\\/vine.co\\/v\\/iYTOb6Pw3HH'
p8664
tp8665
Rp8666
I514
sg1
(g2
(S'S33'
p8667
I0
I1
tp8668
Rp8669
(I3
S'|'
p8670
NNNI33
I1
I0
tp8671
bS'https:\\/\\/vine.co\\/v\\/i7nWzrenw5h'
p8672
tp8673
Rp8674
I1088
sg1
(g2
(S'S33'
p8675
I0
I1
tp8676
Rp8677
(I3
S'|'
p8678
NNNI33
I1
I0
tp8679
bS'https:\\/\\/vine.co\\/v\\/ernezeOxXAT'
p8680
tp8681
Rp8682
I779
sg1
(g2
(S'S33'
p8683
I0
I1
tp8684
Rp8685
(I3
S'|'
p8686
NNNI33
I1
I0
tp8687
bS'https:\\/\\/vine.co\\/v\\/MMYlTAzO5BD'
p8688
tp8689
Rp8690
I1090
sg1
(g2
(S'S33'
p8691
I0
I1
tp8692
Rp8693
(I3
S'|'
p8694
NNNI33
I1
I0
tp8695
bS'https:\\/\\/vine.co\\/v\\/ig9r3HxZLVK'
p8696
tp8697
Rp8698
I1091
sg1
(g2
(S'S33'
p8699
I0
I1
tp8700
Rp8701
(I3
S'|'
p8702
NNNI33
I1
I0
tp8703
bS'https:\\/\\/vine.co\\/v\\/etXlJTnBzZQ'
p8704
tp8705
Rp8706
I1092
sg1
(g2
(S'S33'
p8707
I0
I1
tp8708
Rp8709
(I3
S'|'
p8710
NNNI33
I1
I0
tp8711
bS'https:\\/\\/vine.co\\/v\\/iXw5jIhYb3q'
p8712
tp8713
Rp8714
I1055
sg1
(g2
(S'S33'
p8715
I0
I1
tp8716
Rp8717
(I3
S'|'
p8718
NNNI33
I1
I0
tp8719
bS'https:\\/\\/vine.co\\/v\\/iM0HnpBebd0'
p8720
tp8721
Rp8722
I1094
sg1
(g2
(S'S33'
p8723
I0
I1
tp8724
Rp8725
(I3
S'|'
p8726
NNNI33
I1
I0
tp8727
bS'https:\\/\\/vine.co\\/v\\/iVY3YYFTrOm'
p8728
tp8729
Rp8730
I1095
sg1
(g2
(S'S33'
p8731
I0
I1
tp8732
Rp8733
(I3
S'|'
p8734
NNNI33
I1
I0
tp8735
bS'https:\\/\\/vine.co\\/v\\/e2HP6BilMEV'
p8736
tp8737
Rp8738
I1096
sg1
(g2
(S'S33'
p8739
I0
I1
tp8740
Rp8741
(I3
S'|'
p8742
NNNI33
I1
I0
tp8743
bS'https:\\/\\/vine.co\\/v\\/OaVnUztllaW'
p8744
tp8745
Rp8746
I1071
sg1
(g2
(S'S33'
p8747
I0
I1
tp8748
Rp8749
(I3
S'|'
p8750
NNNI33
I1
I0
tp8751
bS'https:\\/\\/vine.co\\/v\\/igIO1E9ahH0'
p8752
tp8753
Rp8754
I857
sg1
(g2
(S'S33'
p8755
I0
I1
tp8756
Rp8757
(I3
S'|'
p8758
NNNI33
I1
I0
tp8759
bS'https:\\/\\/vine.co\\/v\\/iEmu9XdhPvK'
p8760
tp8761
Rp8762
I1098
sg1
(g2
(S'S33'
p8763
I0
I1
tp8764
Rp8765
(I3
S'|'
p8766
NNNI33
I1
I0
tp8767
bS'https:\\/\\/vine.co\\/v\\/iKamATbzqIp'
p8768
tp8769
Rp8770
I452
sg1
(g2
(S'S33'
p8771
I0
I1
tp8772
Rp8773
(I3
S'|'
p8774
NNNI33
I1
I0
tp8775
bS'https:\\/\\/vine.co\\/v\\/eeZMX536ph6'
p8776
tp8777
Rp8778
I1130
sg1
(g2
(S'S33'
p8779
I0
I1
tp8780
Rp8781
(I3
S'|'
p8782
NNNI33
I1
I0
tp8783
bS'https:\\/\\/vine.co\\/v\\/eIrpA5qdLU9'
p8784
tp8785
Rp8786
I892
sg1
(g2
(S'S33'
p8787
I0
I1
tp8788
Rp8789
(I3
S'|'
p8790
NNNI33
I1
I0
tp8791
bS'https:\\/\\/vine.co\\/v\\/MvbzFEIFbK3'
p8792
tp8793
Rp8794
I904
sg1
(g2
(S'S33'
p8795
I0
I1
tp8796
Rp8797
(I3
S'|'
p8798
NNNI33
I1
I0
tp8799
bS'https:\\/\\/vine.co\\/v\\/edHbDKtHZFP'
p8800
tp8801
Rp8802
I1102
sg1
(g2
(S'S33'
p8803
I0
I1
tp8804
Rp8805
(I3
S'|'
p8806
NNNI33
I1
I0
tp8807
bS'https:\\/\\/vine.co\\/v\\/iDr1HbeTwbO'
p8808
tp8809
Rp8810
I918
sg1
(g2
(S'S33'
p8811
I0
I1
tp8812
Rp8813
(I3
S'|'
p8814
NNNI33
I1
I0
tp8815
bS'https:\\/\\/vine.co\\/v\\/eIi1aWjBI3E'
p8816
tp8817
Rp8818
I1104
sg1
(g2
(S'S33'
p8819
I0
I1
tp8820
Rp8821
(I3
S'|'
p8822
NNNI33
I1
I0
tp8823
bS'https:\\/\\/vine.co\\/v\\/MjixYFUTKdv'
p8824
tp8825
Rp8826
I865
sg1
(g2
(S'S33'
p8827
I0
I1
tp8828
Rp8829
(I3
S'|'
p8830
NNNI33
I1
I0
tp8831
bS'https:\\/\\/vine.co\\/v\\/OerXmx5bL2U'
p8832
tp8833
Rp8834
I936
sg1
(g2
(S'S33'
p8835
I0
I1
tp8836
Rp8837
(I3
S'|'
p8838
NNNI33
I1
I0
tp8839
bS'https:\\/\\/vine.co\\/v\\/eYQUHO6H5Mt'
p8840
tp8841
Rp8842
I1106
sg1
(g2
(S'S33'
p8843
I0
I1
tp8844
Rp8845
(I3
S'|'
p8846
NNNI33
I1
I0
tp8847
bS'https:\\/\\/vine.co\\/v\\/M0Piii7JPTg'
p8848
tp8849
Rp8850
I940
sg1
(g2
(S'S33'
p8851
I0
I1
tp8852
Rp8853
(I3
S'|'
p8854
NNNI33
I1
I0
tp8855
bS'https:\\/\\/vine.co\\/v\\/iWVKrmYevgJ'
p8856
tp8857
Rp8858
I279
sg1
(g2
(S'S33'
p8859
I0
I1
tp8860
Rp8861
(I3
S'|'
p8862
NNNI33
I1
I0
tp8863
bS'https:\\/\\/vine.co\\/v\\/ibIzYnPjvVp'
p8864
tp8865
Rp8866
I1109
sg1
(g2
(S'S33'
p8867
I0
I1
tp8868
Rp8869
(I3
S'|'
p8870
NNNI33
I1
I0
tp8871
bS'https:\\/\\/vine.co\\/v\\/hgBgJd9wwaJ'
p8872
tp8873
Rp8874
I1110
sg1
(g2
(S'S33'
p8875
I0
I1
tp8876
Rp8877
(I3
S'|'
p8878
NNNI33
I1
I0
tp8879
bS'https:\\/\\/vine.co\\/v\\/MHaPdj3xgbL'
p8880
tp8881
Rp8882
I1111
sg1
(g2
(S'S33'
p8883
I0
I1
tp8884
Rp8885
(I3
S'|'
p8886
NNNI33
I1
I0
tp8887
bS'https:\\/\\/vine.co\\/v\\/eI5b5bEDmXu'
p8888
tp8889
Rp8890
I772
sg1
(g2
(S'S33'
p8891
I0
I1
tp8892
Rp8893
(I3
S'|'
p8894
NNNI33
I1
I0
tp8895
bS'https:\\/\\/vine.co\\/v\\/ieqazTM3ttz'
p8896
tp8897
Rp8898
I1113
sg1
(g2
(S'S33'
p8899
I0
I1
tp8900
Rp8901
(I3
S'|'
p8902
NNNI33
I1
I0
tp8903
bS'https:\\/\\/vine.co\\/v\\/Mtnw9XOJznK'
p8904
tp8905
Rp8906
I154
sg1
(g2
(S'S33'
p8907
I0
I1
tp8908
Rp8909
(I3
S'|'
p8910
NNNI33
I1
I0
tp8911
bS'https:\\/\\/vine.co\\/v\\/eFr3aHrBdDY'
p8912
tp8913
Rp8914
I996
sg1
(g2
(S'S33'
p8915
I0
I1
tp8916
Rp8917
(I3
S'|'
p8918
NNNI33
I1
I0
tp8919
bS'https:\\/\\/vine.co\\/v\\/iMUqn3AV7B0'
p8920
tp8921
Rp8922
I1116
sg1
(g2
(S'S33'
p8923
I0
I1
tp8924
Rp8925
(I3
S'|'
p8926
NNNI33
I1
I0
tp8927
bS'https:\\/\\/vine.co\\/v\\/iHlWTzDvxVq'
p8928
tp8929
Rp8930
I1117
sg1
(g2
(S'S33'
p8931
I0
I1
tp8932
Rp8933
(I3
S'|'
p8934
NNNI33
I1
I0
tp8935
bS'https:\\/\\/vine.co\\/v\\/haPv1hx9XAP'
p8936
tp8937
Rp8938
I1118
sg1
(g2
(S'S33'
p8939
I0
I1
tp8940
Rp8941
(I3
S'|'
p8942
NNNI33
I1
I0
tp8943
bS'https:\\/\\/vine.co\\/v\\/edm55HpLPhv'
p8944
tp8945
Rp8946
I1119
sg1
(g2
(S'S33'
p8947
I0
I1
tp8948
Rp8949
(I3
S'|'
p8950
NNNI33
I1
I0
tp8951
bS'https:\\/\\/vine.co\\/v\\/OhUJL9XPMuH'
p8952
tp8953
Rp8954
I1028
sg1
(g2
(S'S33'
p8955
I0
I1
tp8956
Rp8957
(I3
S'|'
p8958
NNNI33
I1
I0
tp8959
bS'https:\\/\\/vine.co\\/v\\/eVZIMEptLEi'
p8960
tp8961
Rp8962
I1121
sg1
(g2
(S'S33'
p8963
I0
I1
tp8964
Rp8965
(I3
S'|'
p8966
NNNI33
I1
I0
tp8967
bS'https:\\/\\/vine.co\\/v\\/MDwUBqBmDvJ'
p8968
tp8969
Rp8970
I1122
sg1
(g2
(S'S33'
p8971
I0
I1
tp8972
Rp8973
(I3
S'|'
p8974
NNNI33
I1
I0
tp8975
bS'https:\\/\\/vine.co\\/v\\/e0BYUwAvZPF'
p8976
tp8977
Rp8978
I1123
sg1
(g2
(S'S33'
p8979
I0
I1
tp8980
Rp8981
(I3
S'|'
p8982
NNNI33
I1
I0
tp8983
bS'https:\\/\\/vine.co\\/v\\/hwpvD71lAHO'
p8984
tp8985
Rp8986
I169
sg1
(g2
(S'S33'
p8987
I0
I1
tp8988
Rp8989
(I3
S'|'
p8990
NNNI33
I1
I0
tp8991
bS'https:\\/\\/vine.co\\/v\\/O9IQ1FE5gKL'
p8992
tp8993
Rp8994
I648
sg1
(g2
(S'S33'
p8995
I0
I1
tp8996
Rp8997
(I3
S'|'
p8998
NNNI33
I1
I0
tp8999
bS'https:\\/\\/vine.co\\/v\\/5huPOnxAQrL'
p9000
tp9001
Rp9002
I756
sg1
(g2
(S'S33'
p9003
I0
I1
tp9004
Rp9005
(I3
S'|'
p9006
NNNI33
I1
I0
tp9007
bS'https:\\/\\/vine.co\\/v\\/OFxOpbFjlpU'
p9008
tp9009
Rp9010
I1036
sg1
(g2
(S'S33'
p9011
I0
I1
tp9012
Rp9013
(I3
S'|'
p9014
NNNI33
I1
I0
tp9015
bS'https:\\/\\/vine.co\\/v\\/iV5ezhxtwzT'
p9016
tp9017
Rp9018
I1128
sg1
(g2
(S'S33'
p9019
I0
I1
tp9020
Rp9021
(I3
S'|'
p9022
NNNI33
I1
I0
tp9023
bS'https:\\/\\/vine.co\\/v\\/5daxOKOzBvj'
p9024
tp9025
Rp9026
I1136
sg1
(g2
(S'S33'
p9027
I0
I1
tp9028
Rp9029
(I3
S'|'
p9030
NNNI33
I1
I0
tp9031
bS'https:\\/\\/vine.co\\/v\\/h6PbvDHZtMw'
p9032
tp9033
Rp9034
I376
sg1
(g2
(S'S33'
p9035
I0
I1
tp9036
Rp9037
(I3
S'|'
p9038
NNNI33
I1
I0
tp9039
bS'https:\\/\\/vine.co\\/v\\/5vXI6ag3WuV'
p9040
tp9041
Rp9042
I1034
sg1
(g2
(S'S33'
p9043
I0
I1
tp9044
Rp9045
(I3
S'|'
p9046
NNNI33
I1
I0
tp9047
bS'https:\\/\\/vine.co\\/v\\/iel2H2dmtAA'
p9048
tp9049
Rp9050
I757
sg1
(g2
(S'S33'
p9051
I0
I1
tp9052
Rp9053
(I3
S'|'
p9054
NNNI33
I1
I0
tp9055
bS'https:\\/\\/vine.co\\/v\\/eP7OK1TgpXj'
p9056
tp9057
Rp9058
I548
sg1
(g2
(S'S33'
p9059
I0
I1
tp9060
Rp9061
(I3
S'|'
p9062
NNNI33
I1
I0
tp9063
bS'https:\\/\\/vine.co\\/v\\/ej2TdEa0m6X'
p9064
tp9065
Rp9066
I1132
sg1
(g2
(S'S33'
p9067
I0
I1
tp9068
Rp9069
(I3
S'|'
p9070
NNNI33
I1
I0
tp9071
bS'https:\\/\\/vine.co\\/v\\/M6iIj7Zl92j'
p9072
tp9073
Rp9074
I1133
sg1
(g2
(S'S33'
p9075
I0
I1
tp9076
Rp9077
(I3
S'|'
p9078
NNNI33
I1
I0
tp9079
bS'https:\\/\\/vine.co\\/v\\/eqV73dtiPvI'
p9080
tp9081
Rp9082
I1134
sg1
(g2
(S'S33'
p9083
I0
I1
tp9084
Rp9085
(I3
S'|'
p9086
NNNI33
I1
I0
tp9087
bS'https:\\/\\/vine.co\\/v\\/iJIQbqrtdA7'
p9088
tp9089
Rp9090
I944
sg1
(g2
(S'S33'
p9091
I0
I1
tp9092
Rp9093
(I3
S'|'
p9094
NNNI33
I1
I0
tp9095
bS'https:\\/\\/vine.co\\/v\\/OFzL5mAteih'
p9096
tp9097
Rp9098
I1137
sg1
(g2
(S'S33'
p9099
I0
I1
tp9100
Rp9101
(I3
S'|'
p9102
NNNI33
I1
I0
tp9103
bS'https:\\/\\/vine.co\\/v\\/OdwwiMhgmVV'
p9104
tp9105
Rp9106
I538
s.